(dp0
S''
p1
ccollections
defaultdict
p2
(c__builtin__
dict
p3
tp4
Rp5
S'items'
p6
(dp7
S'Bacon Wrapped Street Dog'
p8
(dp9
S'Can not have'
p10
I00
sS'Do not want'
p11
I00
sS'Had?'
p12
I00
sssS'number'
p13
(lp14
I22
asS'locations'
p15
(lp16
(dp17
Vlat
p18
F34.0522342
sVlng
p19
F-118.2436849
sassS'CVT Softserve'
p20
g2
(g3
tp21
Rp22
g6
(dp23
S'Twist Cone'
p24
(dp25
g10
I00
sg11
I00
sg12
I00
sssg13
(lp26
I28
asg15
(lp27
(dp28
Vlat
p29
F34.1068751
sVlng
p30
F-118.2718642
sassS'Magnolia Bakery'
p31
g2
(g3
tp32
Rp33
g6
(dp34
S'Banana Bread Pudding'
p35
(dp36
g10
I00
sg11
I00
sg12
I01
sssg13
(lp37
I91
asg15
(lp38
(dp39
Vlat
p40
F34.073116
sVlng
p41
F-118.3730101
sassS'Kogi'
p42
g2
(g3
tp43
Rp44
g6
(dp45
S'Short Rib Tacos'
p46
(dp47
g10
I00
sg11
I00
sg12
I00
sssg13
(lp48
I16
asg15
(lp49
(dp50
Vlat
p51
F34.02451239999999
sVlng
p52
F-118.4112034
sassS'Sweet Lady Jane'
p53
g2
(g3
tp54
Rp55
g6
(dp56
S'Berry Cake'
p57
(dp58
g10
I00
sg11
I00
sg12
I00
sssg13
(lp59
I98
asg15
(lp60
(dp61
Vlat
p62
F34.083379
sVlng
p63
F-118.372525
sassS'Milo and Olive'
p64
g2
(g3
tp65
Rp66
g6
(dp67
S'Garlic Knot'
p68
(dp69
g10
I00
sg11
I00
sg12
I01
sssg13
(lp70
I74
asg15
(lp71
(dp72
Vlat
p73
F34.0375206
sVlng
p74
F-118.4760501
sassS'The Pantry'
p75
g2
(g3
tp76
Rp77
g6
(dp78
S'The Ten Pound Pancakes'
p79
(dp80
g10
I00
sg11
I00
sg12
I00
sssg13
(lp81
I39
asg15
(lp82
(dp83
Vlat
p84
F34.0463704
sVlng
p85
F-118.2629158
sassS'Petit Trois'
p86
g2
(g3
tp87
Rp88
g6
(dp89
S'French Omelette'
p90
(dp91
g10
I00
sg11
I00
sg12
I00
sssg13
(lp92
I77
asg15
(lp93
(dp94
Vlat
p95
F34.0841763
sVlng
p96
F-118.3381923
sassS"Jon and Vinny's"
p97
g2
(g3
tp98
Rp99
g6
(dp100
S'The LA Woman Pizza'
p101
(dp102
g10
I00
sg11
I00
sg12
I00
sssg13
(lp103
I34
asg15
(lp104
(dp105
Vlat
p106
F34.07865170000001
sVlng
p107
F-118.3612248
sassS'Angelini Osteria'
p108
g2
(g3
tp109
Rp110
g6
(dp111
S'Green Lasagna'
p112
(dp113
g10
I00
sg11
I00
sg12
I00
sssg13
(lp114
I85
asg15
(lp115
(dp116
Vlat
p117
F34.0764256
sVlng
p118
F-118.3491328
sassS"Pink's"
p119
g2
(g3
tp120
Rp121
g6
(dp122
S'Classic Chili Cheese Dog'
p123
(dp124
g10
I00
sg11
I00
sg12
I00
sssg13
(lp125
I12
asg15
(lp126
(dp127
Vlat
p128
F34.0838725
sVlng
p129
F-118.3442778
sassS'Gjusta'
p130
g2
(g3
tp131
Rp132
g6
(dp133
S'Porchetta Melt'
p134
(dp135
g10
I00
sg11
I00
sg12
I00
sssg13
(lp136
I78
asg15
(lp137
(dp138
Vlat
p139
F33.99527380000001
sVlng
p140
F-118.4745361
sassS'Alfred Coffee'
p141
g2
(g3
tp142
Rp143
g6
(dp144
S'Edible Espresso Cup'
p145
(dp146
g10
I00
sg11
I00
sg12
I00
sssg13
(lp147
I8
asg15
(lp148
(dp149
Vlat
p150
F34.0833724
sVlng
p151
F-118.3743114
sa(dp152
Vlat
p153
F34.082046
sVlng
p154
F-118.37707
sassS"Bob's Coffee and Donuts"
p155
g2
(g3
tp156
Rp157
g6
(dp158
S'Plain Cake Donut'
p159
(dp160
g10
I00
sg11
I00
sg12
I00
sssg13
(lp161
I40
asg15
(lp162
(dp163
Vlat
p164
F34.0720269
sVlng
p165
F-118.3598175
sassS'Yang Chow'
p166
g2
(g3
tp167
Rp168
g6
(dp169
S'Slippery Shrimp'
p170
(dp171
g10
I01
sg11
I00
sg12
I00
sssg13
(lp172
I55
asg15
(lp173
(dp174
Vlat
p175
F34.0629657
sVlng
p176
F-118.2382179
sassS'Jogosaki'
p177
g2
(g3
tp178
Rp179
g6
(dp180
S'Sushi Burrito '
p181
(dp182
g10
I00
sg11
I01
sg12
I00
sssg13
(lp183
I81
asg15
(lp184
(dp185
Vlat
p186
F34.0205202
sVlng
p187
F-118.4221912
sassS'Caioti'
p188
g2
(g3
tp189
Rp190
g6
(dp191
S'Pregnancy Salad'
p192
(dp193
g10
I00
sg11
I00
sg12
I00
sssg13
(lp194
I93
asg15
(lp195
(dp196
Vlat
p197
F34.149073
sVlng
p198
F-118.3788193
sassS"Vito's"
p199
g2
(g3
tp200
Rp201
g6
(dp202
S'White Pizza with Ricotta and Pesto'
p203
(dp204
g10
I00
sg11
I00
sg12
I00
sssg13
(lp205
I33
asg15
(lp206
(dp207
Vlat
p208
F34.086588
sVlng
p209
F-118.3760066
sa(dp210
Vlat
p211
F34.0326434
sVlng
p212
F-118.475521
sassS'Golden Deli'
p213
g2
(g3
tp214
Rp215
g6
(dp216
S'Pho'
p217
(dp218
g10
I00
sg11
I00
sg12
I00
sssg13
(lp219
I3
asg15
(lp220
(dp221
Vlat
p222
F34.1028567
sVlng
p223
F-118.1117593
sassS"Pie'n Burger"
p224
g2
(g3
tp225
Rp226
g6
(dp227
S'Cheeseburger '
p228
(dp229
g10
I00
sg11
I00
sg12
I00
sssg13
(lp230
I100
asg15
(lp231
(dp232
Vlat
p233
F34.1360062
sVlng
p234
F-118.1314835
sassS'Soot Bull Jeep'
p235
g2
(g3
tp236
Rp237
g6
(dp238
S'Galbi'
p239
(dp240
g10
I00
sg11
I00
sg12
I00
sssg13
(lp241
I42
asg15
(lp242
(dp243
Vlat
p244
F34.0575858
sVlng
p245
F-118.2958153
sassS'Eggslut'
p246
g2
(g3
tp247
Rp248
g6
(dp249
S'The Fairfax'
p250
(dp251
g10
I00
sg11
I00
sg12
I01
sssg13
(lp252
I20
asg15
(lp253
(dp254
Vlat
p255
F33.98737479999999
sVlng
p256
F-118.4722263
sa(dp257
Vlat
p258
F34.0506538
sVlng
p259
F-118.2486981
sassS'Original Pancake House'
p260
g2
(g3
tp261
Rp262
g6
(dp263
S'Dutch Baby Pancake'
p264
(dp265
g10
I00
sg11
I00
sg12
I00
sssg13
(lp266
I69
asg15
(lp267
(dp268
Vlat
p269
F33.8179892
sVlng
p270
F-118.381627
sa(dp271
Vlat
p272
F33.67409350000001
sVlng
p273
F-117.9528023
sa(dp274
Vlat
p275
F33.838927
sVlng
p276
F-117.89813
sa(dp277
Vlat
p278
F33.940221
sVlng
p279
F-117.981051
sassS"Lawry's"
p280
g2
(g3
tp281
Rp282
g6
(dp283
S'Prime Rib'
p284
(dp285
g10
I00
sg11
I00
sg12
I00
sssg13
(lp286
I82
asg15
(lp287
(dp288
Vlat
p289
F34.067832
sVlng
p290
F-118.376023
sassS"Langer's Deli"
p291
g2
(g3
tp292
Rp293
g6
(dp294
S'The Original #19'
p295
(dp296
g10
I00
sg11
I00
sg12
I00
sssg13
(lp297
I19
asg15
(lp298
(dp299
Vlat
p300
F34.0561767
sVlng
p301
F-118.2767998
sassS'Chi Spacca'
p302
g2
(g3
tp303
Rp304
g6
(dp305
S'Focaccia di Recco'
p306
(dp307
g10
I00
sg11
I00
sg12
I00
sssg13
(lp308
I79
asg15
(lp309
(dp310
Vlat
p311
F34.0832643
sVlng
p312
F-118.3390895
sassS'Cacao Mexicatessen'
p313
g2
(g3
tp314
Rp315
g6
(dp316
S'Mexican Hot Chocolate'
p317
(dp318
g10
I00
sg11
I00
sg12
I00
sssg13
(lp319
I23
asg15
(lp320
(dp321
Vlat
p322
F34.1392684
sVlng
p323
F-118.200662
sassS'Urth Caffe'
p324
g2
(g3
tp325
Rp326
g6
(dp327
S'Green Tea Macha Latte'
p328
(dp329
g10
I00
sg11
I00
sg12
I00
sssg13
(lp330
I6
asg15
(lp331
(dp332
Vlat
p333
F34.004361
sVlng
p334
F-118.485779
sa(dp335
Vlat
p336
F34.0626573
sVlng
p337
F-118.3994193
sa(dp338
Vlat
p339
F34.082145
sVlng
p340
F-118.378931
sa(dp341
Vlat
p342
F34.04197
sVlng
p343
F-118.235422
sa(dp344
Vlat
p345
F34.0667305
sVlng
p346
F-118.3900266
sa(dp347
Vlat
p348
F33.544219
sVlng
p349
F-117.788384
sa(dp350
Vlat
p351
F34.14551
sVlng
p352
F-118.138124
sassS'The Dal Rae'
p353
g2
(g3
tp354
Rp355
g6
(dp356
S'Table-side Caeser'
p357
(dp358
g10
I00
sg11
I00
sg12
I00
sssg13
(lp359
I61
asg15
(lp360
(dp361
Vlat
p362
F33.9829117
sVlng
p363
F-118.0961274
sassS'Sushi Gen'
p364
g2
(g3
tp365
Rp366
g6
(dp367
S'Chirashi Lunch Special'
p368
(dp369
g10
I01
sg11
I00
sg12
I00
sssg13
(lp370
I24
asg15
(lp371
(dp372
Vlat
p373
F34.046703
sVlng
p374
F-118.2387686
sassS'Plan Check'
p375
g2
(g3
tp376
Rp377
g6
(dp378
S'Sweet Potato Fries'
p379
(dp380
g10
I00
sg11
I00
sg12
I01
sssg13
(lp381
I25
asg15
(lp382
(dp383
Vlat
p384
F34.0439004
sVlng
p385
F-118.4459537
sa(dp386
Vlat
p387
F34.0776525
sVlng
p388
F-118.361609
sa(dp389
Vlat
p390
F34.0141185
sVlng
p391
F-118.4974821
sa(dp392
Vlat
p393
F34.0525983
sVlng
p394
F-118.2634476
sassS'El Tepeyac Cafe'
p395
g2
(g3
tp396
Rp397
g6
(dp398
S'The Hollenbeck Burrito'
p399
(dp400
g10
I00
sg11
I00
sg12
I00
sssg13
(lp401
I17
asg15
(lp402
(dp403
Vlat
p404
F34.047738
sVlng
p405
F-118.197579
sassS"Craig's"
p406
g2
(g3
tp407
Rp408
g6
(dp409
S'Honey Truffle Chicken'
p410
(dp411
g10
I00
sg11
I00
sg12
I00
sssg13
(lp412
I89
asg15
(lp413
(dp414
Vlat
p415
F34.0806196
sVlng
p416
F-118.3865179
sassS'Sotto'
p417
g2
(g3
tp418
Rp419
g6
(dp420
S'Guanciale Pizza'
p421
(dp422
g10
I00
sg11
I00
sg12
I00
sssg13
(lp423
I53
asg15
(lp424
(dp425
Vlat
p426
F34.0554217
sVlng
p427
F-118.3976085
sassS'Spago'
p428
g2
(g3
tp429
Rp430
g6
(dp431
S'Smoked Salmon Pizza'
p432
(dp433
g10
I00
sg11
I01
sg12
I00
sssg13
(lp434
I97
asg15
(lp435
(dp436
Vlat
p437
F34.0676269
sVlng
p438
F-118.3975928
sassS'Bestia'
p439
g2
(g3
tp440
Rp441
g6
(dp442
S'Charcuterie Board'
p443
(dp444
g10
I00
sg11
I00
sg12
I00
sssg13
(lp445
I50
asg15
(lp446
(dp447
Vlat
p448
F34.0336655
sVlng
p449
F-118.2292632
sassS'The Donut Man'
p450
g2
(g3
tp451
Rp452
g6
(dp453
S'Seasonal Strawberry Donut'
p454
(dp455
g10
I00
sg11
I00
sg12
I00
sssg13
(lp456
I10
asg15
(lp457
(dp458
Vlat
p459
F34.1289705
sVlng
p460
F-117.8497678
sassS'Ago'
p461
g2
(g3
tp462
Rp463
g6
(dp464
S'Osso Buco'
p465
(dp466
g10
I00
sg11
I00
sg12
I00
sssg13
(lp467
I86
asg15
(lp468
(dp469
Vlat
p470
F34.0821725
sVlng
p471
F-118.3756588
sassS'El Compadre'
p472
g2
(g3
tp473
Rp474
g6
(dp475
S'The Flaming Margarita'
p476
(dp477
g10
I00
sg11
I00
sg12
I00
sssg13
(lp478
I35
asg15
(lp479
(dp480
Vlat
p481
F34.0978073
sVlng
p482
F-118.3522447
sassS'Diddy Reese'
p483
g2
(g3
tp484
Rp485
g6
(dp486
S'Ice Cream Sandwich'
p487
(dp488
g10
I00
sg11
I00
sg12
I01
sssg13
(lp489
I5
asg15
(lp490
(dp491
Vlat
p492
F34.0630585
sVlng
p493
F-118.446859
sassS"Father's Office"
p494
g2
(g3
tp495
Rp496
g6
(dp497
S'The Office Burger'
p498
(dp499
g10
I00
sg11
I00
sg12
I01
sssg13
(lp500
I14
asg15
(lp501
(dp502
Vlat
p503
F34.029318
sVlng
p504
F-118.498368
sa(dp505
Vlat
p506
F34.0304038
sVlng
p507
F-118.3848082
sassS'Bay Cities Italian Deli'
p508
g2
(g3
tp509
Rp510
g6
(dp511
S'Spicy Godmother'
p512
(dp513
g10
I00
sg11
I00
sg12
I01
sssg13
(lp514
I41
asg15
(lp515
(dp516
Vlat
p517
F34.0178598
sVlng
p518
F-118.4892024
sassS'Valerie Confections'
p519
g2
(g3
tp520
Rp521
g6
(dp522
S"Blum's Coffee Crunch Cake"
p523
(dp524
g10
I00
sg11
I00
sg12
I00
sssg13
(lp525
I68
asg15
(lp526
(dp527
Vlat
p528
F34.0733807
sVlng
p529
F-118.2860371
sassS'Chaya'
p530
g2
(g3
tp531
Rp532
g6
(dp533
S'Tuna Tartare'
p534
(dp535
g10
I00
sg11
I00
sg12
I00
sssg13
(lp536
I66
asg15
(lp537
(dp538
Vlat
p539
F34.0512948
sVlng
p540
F-118.2575046
sassS'El Cholo'
p541
g2
(g3
tp542
Rp543
g6
(dp544
S'Nachos'
p545
(dp546
g10
I00
sg11
I00
sg12
I00
ssS'Green corn tamales'
p547
(dp548
g10
I00
sg11
I00
sg12
I01
sssg13
(lp549
I63
aI88
asg15
(lp550
(dp551
Vlat
p552
F34.0243913
sVlng
p553
F-118.4920785
sa(dp554
Vlat
p555
F34.050257
sVlng
p556
F-118.3092343
sa(dp557
Vlat
p558
F34.0435993
sVlng
p559
F-118.2638228
sa(dp560
Vlat
p561
F33.94561960000001
sVlng
p562
F-118.4038455
sassS'Katsu-Ya'
p563
g2
(g3
tp564
Rp565
g6
(dp566
S'Spicy Tuna Crispy Rice'
p567
(dp568
g10
I00
sg11
I00
sg12
I00
sssg13
(lp569
I58
asg15
(lp570
(dp571
Vlat
p572
F34.1408027
sVlng
p573
F-118.3874229
sa(dp574
Vlat
p575
F34.1576319
sVlng
p576
F-118.4938785
sa(dp577
Vlat
p578
F34.1834562
sVlng
p579
F-118.6051396
sa(dp580
Vlat
p581
F34.2464432
sVlng
p582
F-118.5370186
sassS"Porto's"
p583
g2
(g3
tp584
Rp585
g6
(dp586
S'Guave Cheese Pastry'
p587
(dp588
g10
I00
sg11
I00
sg12
I00
sssg13
(lp589
I46
asg15
(lp590
(dp591
Vlat
p592
F34.1676971
sVlng
p593
F-118.3465324
sa(dp594
Vlat
p595
F34.1504211
sVlng
p596
F-118.2554535
sassS"Ricky's Fish Tacos"
p597
g2
(g3
tp598
Rp599
g6
(dp600
S'Fish Tacos'
p601
(dp602
g10
I00
sg11
I00
sg12
I00
sssg13
(lp603
I57
asg15
(lp604
(dp605
Vlat
p606
F34.09688149999999
sVlng
p607
F-118.2872444
sassS'Daikokuya Ramen'
p608
g2
(g3
tp609
Rp610
g6
(dp611
S'Spicy Miso Ramen'
p612
(dp613
g10
I00
sg11
I00
sg12
I00
sssg13
(lp614
I99
asg15
(lp615
(dp616
Vlat
p617
F34.0500021
sVlng
p618
F-118.2400679
sa(dp619
Vlat
p620
F34.0379806
sVlng
p621
F-118.4407598
sa(dp622
Vlat
p623
F34.06295129999999
sVlng
p624
F-118.1348684
sa(dp625
Vlat
p626
F34.062983
sVlng
p627
F-118.052452
sassS'The Apple Pan'
p628
g2
(g3
tp629
Rp630
g6
(dp631
S'Banana Cr\x8fme Pie'
p632
(dp633
g10
I00
sg11
I00
sg12
I01
ssS'Hickory Burger'
p634
(dp635
g10
I00
sg11
I00
sg12
I00
sssg13
(lp636
I31
aI90
asg15
(lp637
(dp638
Vlat
p639
F34.0406956
sVlng
p640
F-118.4278467
sassS'Dodger Stadium'
p641
g2
(g3
tp642
Rp643
g6
(dp644
S'Dodger Dog'
p645
(dp646
g10
I00
sg11
I00
sg12
I00
sssg13
(lp647
I7
asg15
(lp648
(dp649
Vlat
p650
F34.073851
sVlng
p651
F-118.2399583
sassS'La Scala'
p652
g2
(g3
tp653
Rp654
g6
(dp655
S'Original Chopped Salad'
p656
(dp657
g10
I00
sg11
I00
sg12
I00
sssg13
(lp658
I47
asg15
(lp659
(dp660
Vlat
p661
F34.0529574
sVlng
p662
F-118.4668351
sassS'South Beverly Grill'
p663
g2
(g3
tp664
Rp665
g6
(dp666
S'Dover Sole'
p667
(dp668
g10
I00
sg11
I00
sg12
I00
sssg13
(lp669
I83
asg15
(lp670
(dp671
Vlat
p672
F34.066125
sVlng
p673
F-118.3989013
sassS'Baroo'
p674
g2
(g3
tp675
Rp676
g6
(dp677
S'Noorook'
p678
(dp679
g10
I00
sg11
I00
sg12
I00
sssg13
(lp680
I76
asg15
(lp681
(dp682
Vlat
p683
F34.0904444
sVlng
p684
F-118.3138278
sassS'Eagle Rock Italian Bakery'
p685
g2
(g3
tp686
Rp687
g6
(dp688
S'Rum Cake'
p689
(dp690
g10
I00
sg11
I00
sg12
I00
sssg13
(lp691
I65
asg15
(lp692
(dp693
Vlat
p694
F34.1392187
sVlng
p695
F-118.2046433
sassS"Bob's Big Boy"
p696
g2
(g3
tp697
Rp698
g6
(dp699
S'Big Boy Combo'
p700
(dp701
g10
I00
sg11
I00
sg12
I00
sssg13
(lp702
I72
asg15
(lp703
(dp704
Vlat
p705
F34.2315838
sVlng
p706
F-118.5618725
sa(dp707
Vlat
p708
F34.1523958
sVlng
p709
F-118.3461425
sassS'Din Tai Fung'
p710
g2
(g3
tp711
Rp712
g6
(dp713
S'Soup Dumplings'
p714
(dp715
g10
I00
sg11
I00
sg12
I01
sssg13
(lp716
I43
asg15
(lp717
(dp718
Vlat
p719
F34.1429849
sVlng
p720
F-118.2553442
sa(dp721
Vlat
p722
F34.1350798
sVlng
p723
F-118.0517164
sa(dp724
Vlat
p725
F33.6920939
sVlng
p726
F-117.8877851
sassS'Providence'
p727
g2
(g3
tp728
Rp729
g6
(dp730
S'The Ugly Bunch'
p731
(dp732
g10
I00
sg11
I00
sg12
I00
sssg13
(lp733
I59
asg15
(lp734
(dp735
Vlat
p736
F34.0836413
sVlng
p737
F-118.3302036
sassS'Magal Korean BBQ'
p738
g2
(g3
tp739
Rp740
g6
(dp741
S'Beef Combo'
p742
(dp743
g10
I00
sg11
I00
sg12
I00
sssg13
(lp744
I95
asg15
(lp745
(dp746
Vlat
p747
F34.0575419
sVlng
p748
F-118.3055724
sassS'Pacific Dining Car'
p749
g2
(g3
tp750
Rp751
g6
(dp752
S'Baseball Steak (w/lobster tail)'
p753
(dp754
g10
I01
sg11
I00
sg12
I00
sssg13
(lp755
I96
asg15
(lp756
(dp757
Vlat
p758
F34.0367387
sVlng
p759
F-118.4763373
sa(dp760
Vlat
p761
F34.0554918
sVlng
p762
F-118.2660331
sassS'Animal'
p763
g2
(g3
tp764
Rp765
g6
(dp766
S'Bacon Chocolate Crunch Bar'
p767
(dp768
g10
I00
sg11
I00
sg12
I00
sssS'location'
p769
(lp770
(dp771
Vlat
p772
F34.0792295
sVlng
p773
F-118.3617722
sasg13
(lp774
I75
asg15
(lp775
(dp776
Vlat
p777
F34.0792295
sVlng
p778
F-118.3617722
sassS"Miceli's"
p779
g2
(g3
tp780
Rp781
g6
(dp782
S"Aunt Angie's Lasagna"
p783
(dp784
g10
I00
sg11
I00
sg12
I00
sssg13
(lp785
I73
asg15
(lp786
(dp787
Vlat
p788
F34.10134
sVlng
p789
F-118.336097
sa(dp790
Vlat
p791
F34.13463100000001
sVlng
p792
F-118.361089
sassS'Atticus Creamery and Pies'
p793
g2
(g3
tp794
Rp795
g6
(dp796
S'Lemon Lavender Ice Cream'
p797
(dp798
g10
I00
sg11
I00
sg12
I00
sssg13
(lp799
I71
asg15
(lp800
(dp801
Vlat
p802
F34.0399404
sVlng
p803
F-118.4294921
sassS'Osteria Mozza'
p804
g2
(g3
tp805
Rp806
g6
(dp807
S'Burrata'
p808
(dp809
g10
I00
sg11
I00
sg12
I00
sssg13
(lp810
I92
asg15
(lp811
(dp812
Vlat
p813
F34.0832515
sVlng
p814
F-118.338874
sassS'Stella Barra'
p815
g2
(g3
tp816
Rp817
g6
(dp818
S'Rice Krispy Treat Cookies'
p819
(dp820
g10
I00
sg11
I00
sg12
I00
sssg13
(lp821
I26
asg15
(lp822
(dp823
Vlat
p824
F34.0977183
sVlng
p825
F-118.3286804
sassS'Chart House'
p826
g2
(g3
tp827
Rp828
g6
(dp829
S'Chocolate Lava Cake'
p830
(dp831
g10
I00
sg11
I00
sg12
I00
sssg13
(lp832
I29
asg15
(lp833
(dp834
Vlat
p835
F33.9786922
sVlng
p836
F-118.4533319
sa(dp837
Vlat
p838
F33.851704
sVlng
p839
F-118.398844
sassS'The Polo Lounge'
p840
g2
(g3
tp841
Rp842
g6
(dp843
S'McCarthy Salad'
p844
(dp845
g10
I00
sg11
I00
sg12
I00
sssg13
(lp846
I84
asg15
(lp847
(dp848
Vlat
p849
F34.081528
sVlng
p850
F-118.413855
sassS'Guerilla Tacos'
p851
g2
(g3
tp852
Rp853
g6
(dp854
S'Sweet Potato Tacos'
p855
(dp856
g10
I00
sg11
I00
sg12
I01
sssg13
(lp857
I13
asg15
(lp858
(dp859
Vlat
p860
F34.045701
sVlng
p861
F-118.235316
sa(dp862
Vlat
p863
F34.0310922
sVlng
p864
F-118.3778603
sassS"Canter's Deli"
p865
g2
(g3
tp866
Rp867
g6
(dp868
S'Matzo Ball Soup'
p869
(dp870
g10
I00
sg11
I00
sg12
I00
ssS'Pastrami Sandwich'
p871
(dp872
g10
I00
sg11
I00
sg12
I00
sssg13
(lp873
I27
aI32
asg15
(lp874
(dp875
Vlat
p876
F34.0789
sVlng
p877
F-118.361722
sassS'Melisse'
p878
g2
(g3
tp879
Rp880
g6
(dp881
S'Lobster Bolognese'
p882
(dp883
g10
I01
sg11
I00
sg12
I00
sssg13
(lp884
I80
asg15
(lp885
(dp886
Vlat
p887
F34.0242934
sVlng
p888
F-118.4912758
sassS'Musso and Frank Grill'
p889
g2
(g3
tp890
Rp891
g6
(dp892
S'Flannel Cakes'
p893
(dp894
g10
I00
sg11
I00
sg12
I00
ssS'Martini'
p895
(dp896
g10
I00
sg11
I00
sg12
I00
sssg13
(lp897
I87
aI51
asg15
(lp898
(dp899
Vlat
p900
F34.1018304
sVlng
p901
F-118.3354084
sassS'Mariscos Jalisco'
p902
g2
(g3
tp903
Rp904
g6
(dp905
S'Shrimp Tacos'
p906
(dp907
g10
I01
sg11
I00
sg12
I00
sssg13
(lp908
I15
asg15
(lp909
(dp910
Vlat
p911
F34.0209537
sVlng
p912
F-118.2128456
sassS'Chego'
p913
g2
(g3
tp914
Rp915
g6
(dp916
S'Chubby Pork Belly Bowl '
p917
(dp918
g10
I00
sg11
I00
sg12
I00
sssg13
(lp919
I37
asg15
(lp920
(dp921
Vlat
p922
F34.0613819
sVlng
p923
F-118.2396111
sassS'sugarfish'
p924
g2
(g3
tp925
Rp926
g6
(dp927
S'Trust Me'
p928
(dp929
g10
I01
sg11
I00
sg12
I00
sssg13
(lp930
I49
asg15
(lp931
(dp932
Vlat
p933
F34.05351789999999
sVlng
p934
F-118.463145
sa(dp935
Vlat
p936
F34.0734652
sVlng
p937
F-118.3442974
sa(dp938
Vlat
p939
F34.047409
sVlng
p940
F-118.257171
sa(dp941
Vlat
p942
F34.0682208
sVlng
p943
F-118.3982564
sa(dp944
Vlat
p945
F34.09829810000001
sVlng
p946
F-118.3226969
sa(dp947
Vlat
p948
F33.978918
sVlng
p949
F-118.437878
sa(dp950
Vlat
p951
F34.0153935
sVlng
p952
F-118.4972314
sa(dp953
Vlat
p954
F34.140301
sVlng
p955
F-118.3755543
sassS'Crossroads Kitchen'
p956
g2
(g3
tp957
Rp958
g6
(dp959
S'Artichoke Oysters'
p960
(dp961
g10
I01
sg11
I00
sg12
I00
sssg13
(lp962
I67
asg15
(lp963
(dp964
Vlat
p965
F34.083527
sVlng
p966
F-118.370157
sassS'Falafel Arax'
p967
g2
(g3
tp968
Rp969
g6
(dp970
S'Chicken Shawarma Baguette Sandwich'
p971
(dp972
g10
I00
sg11
I00
sg12
I00
sssg13
(lp973
I48
asg15
(lp974
(dp975
Vlat
p976
F34.09105400000001
sVlng
p977
F-118.300799
sassS'Umami Burger'
p978
g2
(g3
tp979
Rp980
g6
(dp981
S'The Umami Burger'
p982
(dp983
g10
I00
sg11
I00
sg12
I00
sssg13
(lp984
I54
asg15
(lp985
(dp986
Vlat
p987
F34.01669099999999
sVlng
p988
F-118.49213
sa(dp989
Vlat
p990
F34.073067
sVlng
p991
F-118.358497
sa(dp992
Vlat
p993
F34.09892810000001
sVlng
p994
F-118.3292468
sa(dp995
Vlat
p996
F34.0424672
sVlng
p997
F-118.2556542
sa(dp998
Vlat
p999
F34.0455554
sVlng
p1000
F-118.2367412
sa(dp1001
Vlat
p1002
F34.10069599999999
sVlng
p1003
F-118.290505
sa(dp1004
Vlat
p1005
F33.942257
sVlng
p1006
F-118.407042
sassS'Pizzaria Mozza'
p1007
g2
(g3
tp1008
Rp1009
g6
(dp1010
S'Butterscotch Budino'
p1011
(dp1012
g10
I00
sg11
I00
sg12
I00
ssS'Fennel Sausage Pizza'
p1013
(dp1014
g10
I00
sg11
I00
sg12
I00
sssg13
(lp1015
I38
aI60
asg15
(lp1016
(dp1017
Vlat
p1018
F34.0831213
sVlng
p1019
F-118.3388633
sassS"Roscoe's Chicken and Waffles"
p1020
g2
(g3
tp1021
Rp1022
g6
(dp1023
S'The #9'
p1024
(dp1025
g10
I00
sg11
I00
sg12
I00
sssg13
(lp1026
I30
asg15
(lp1027
(dp1028
Vlat
p1029
F34.04752879999999
sVlng
p1030
F-118.3462124
sa(dp1031
Vlat
p1032
F34.0985783
sVlng
p1033
F-118.3221555
sa(dp1034
Vlat
p1035
F33.9598486
sVlng
p1036
F-118.2745223
sa(dp1037
Vlat
p1038
F33.9618174
sVlng
p1039
F-118.3674194
sa(dp1040
Vlat
p1041
F33.7953116
sVlng
p1042
F-117.9147345
sa(dp1043
Vlat
p1044
F34.1602128
sVlng
p1045
F-118.1321805
sassS"Dan Tana's"
p1046
g2
(g3
tp1047
Rp1048
g6
(dp1049
S'Chicken Parm'
p1050
(dp1051
g10
I00
sg11
I00
sg12
I00
sssg13
(lp1052
I62
asg15
(lp1053
(dp1054
Vlat
p1055
F34.0817517
sVlng
p1056
F-118.3890223
sassS'La Estrella'
p1057
g2
(g3
tp1058
Rp1059
g6
(dp1060
S'Carne Tacos'
p1061
(dp1062
g10
I00
sg11
I00
sg12
I00
sssg13
(lp1063
I36
asg15
(lp1064
(dp1065
Vlat
p1066
F34.0903333
sVlng
p1067
F-118.3832903
sassS'Zankou Chicken'
p1068
g2
(g3
tp1069
Rp1070
g6
(dp1071
S'Tarna Warp'
p1072
(dp1073
g10
I00
sg11
I00
sg12
I01
sssg13
(lp1074
I44
asg15
(lp1075
(dp1076
Vlat
p1077
F34.0471585
sVlng
p1078
F-118.4437234
sa(dp1079
Vlat
p1080
F34.0982898
sVlng
p1081
F-118.3606741
sa(dp1082
Vlat
p1083
F34.0985315
sVlng
p1084
F-118.3002893
sassS'In-N-Out'
p1085
g2
(g3
tp1086
Rp1087
g6
(dp1088
S'Animal Style Fries '
p1089
(dp1090
g10
I00
sg11
I00
sg12
I01
sssg13
(lp1091
I11
asg15
(lp1092
(dp1093
Vlat
p1094
F34.06306399999999
sVlng
p1095
F-118.448026
sa(dp1096
Vlat
p1097
F34.0264684
sVlng
p1098
F-118.3942793
sa(dp1099
Vlat
p1100
F33.95370630000001
sVlng
p1101
F-118.396763
sa(dp1102
Vlat
p1103
F34.1350731
sVlng
p1104
F-118.3606042
sa(dp1105
Vlat
p1106
F33.945794
sVlng
p1107
F-118.33238
sassS'Wurstkuche'
p1108
g2
(g3
tp1109
Rp1110
g6
(dp1111
S'The Rattlesnake and Rabbit Bratwurst'
p1112
(dp1113
g10
I00
sg11
I00
sg12
I01
sssg13
(lp1114
I18
asg15
(lp1115
(dp1116
Vlat
p1117
F33.99974050000001
sVlng
p1118
F-118.4649579
sa(dp1119
Vlat
p1120
F34.045601
sVlng
p1121
F-118.236064
sassS'Sycamore Kitchen'
p1122
g2
(g3
tp1123
Rp1124
g6
(dp1125
S'Mediterranean Gem Salad'
p1126
(dp1127
g10
I00
sg11
I00
sg12
I00
sssg13
(lp1128
I2
asg15
(lp1129
(dp1130
Vlat
p1131
F34.0723653
sVlng
p1132
F-118.344421
sassS'Bottega Louie'
p1133
g2
(g3
tp1134
Rp1135
g6
(dp1136
S'Macaron'
p1137
(dp1138
g10
I00
sg11
I00
sg12
I00
sssg13
(lp1139
I9
asg15
(lp1140
(dp1141
Vlat
p1142
F34.04695359999999
sVlng
p1143
F-118.2564831
sassS'Sqirl'
p1144
g2
(g3
tp1145
Rp1146
g6
(dp1147
S'Crispy Rice Salad'
p1148
(dp1149
g10
I00
sg11
I00
sg12
I00
sssg13
(lp1150
I52
asg15
(lp1151
(dp1152
Vlat
p1153
F34.0842999
sVlng
p1154
F-118.286684
sassS"Pann's"
p1155
g2
(g3
tp1156
Rp1157
g6
(dp1158
S'Fried Chicken'
p1159
(dp1160
g10
I00
sg11
I00
sg12
I00
sssg13
(lp1161
I70
asg15
(lp1162
(dp1163
Vlat
p1164
F33.9781832
sVlng
p1165
F-118.3706077
sassS"Greenblatt's Deli"
p1166
g2
(g3
tp1167
Rp1168
g6
(dp1169
S'Chicken Noodle Soup'
p1170
(dp1171
g10
I00
sg11
I00
sg12
I00
sssg13
(lp1172
I4
asg15
(lp1173
(dp1174
Vlat
p1175
F34.0981571
sVlng
p1176
F-118.3646505
sassS'Yogurt Stop'
p1177
g2
(g3
tp1178
Rp1179
g6
(dp1180
S'Red Velvet Froyo'
p1181
(dp1182
g10
I00
sg11
I00
sg12
I00
sssg13
(lp1183
I21
asg15
(lp1184
(dp1185
Vlat
p1186
F34.08586100000001
sVlng
p1187
F-118.383084
sassS'Casa Bianca Pizza Pie'
p1188
g2
(g3
tp1189
Rp1190
g6
(dp1191
S'Pepperoni Pizza'
p1192
(dp1193
g10
I00
sg11
I00
sg12
I00
ssS'Fried Eggplant Pizza'
p1194
(dp1195
g10
I00
sg11
I00
sg12
I00
sssg13
(lp1196
I64
aI94
asg15
(lp1197
(dp1198
Vlat
p1199
F34.13919800000001
sVlng
p1200
F-118.2028302
sassS'Cofax'
p1201
g2
(g3
tp1202
Rp1203
g6
(dp1204
S'Pastrami Breakfast Burrito'
p1205
(dp1206
g10
I00
sg11
I00
sg12
I00
sssg13
(lp1207
I56
asg15
(lp1208
(dp1209
Vlat
p1210
F34.07933599999999
sVlng
p1211
F-118.361266
sassS"Phillipe's"
p1212
g2
(g3
tp1213
Rp1214
g6
(dp1215
S'French Dip'
p1216
(dp1217
g10
I00
sg11
I00
sg12
I00
sssg13
(lp1218
I1
asg15
(lp1219
(dp1220
Vlat
p1221
F34.059768
sVlng
p1222
F-118.237035
sassS'The Bigg Chill'
p1223
g2
(g3
tp1224
Rp1225
g6
(dp1226
S'Vegan Cookie Dough'
p1227
(dp1228
g10
I00
sg11
I00
sg12
I01
sssg13
(lp1229
I45
asg15
(lp1230
(dp1231
Vlat
p1232
F34.04371440000001
sVlng
p1233
F-118.4313531
sass.