(dp0
S''
p1
ccollections
defaultdict
p2
(c__builtin__
dict
p3
tp4
Rp5
S'items'
p6
(dp7
S'Bacon Wrapped Street Dog'
p8
(dp9
S'Can not have'
p10
I00
sS'Do not want'
p11
I00
sS'Had?'
p12
I00
sssS'number'
p13
(lp14
I22
asS'locations'
p15
(lp16
(dp17
Vlat
p18
F34.0522342
sVlng
p19
F-118.2436849
sassS'CVT Softserve'
p20
g2
(g3
tp21
Rp22
g6
(dp23
S'Twist Cone'
p24
(dp25
g10
I00
sg11
I00
sg12
I00
sssg13
(lp26
I28
asg15
(lp27
(dp28
Vlat
p29
F34.1068751
sVlng
p30
F-118.2718642
sassS'Magnolia Bakery'
p31
g2
(g3
tp32
Rp33
g6
(dp34
S'Banana Bread Pudding'
p35
(dp36
g10
I00
sg11
I00
sg12
I01
sssg13
(lp37
I91
asg15
(lp38
(dp39
Vlat
p40
F34.073116
sVlng
p41
F-118.3730101
sassS'Kogi'
p42
g2
(g3
tp43
Rp44
g6
(dp45
S'Short Rib Tacos'
p46
(dp47
g10
I00
sg11
I00
sg12
I00
sssg13
(lp48
I16
asg15
(lp49
(dp50
Vlat
p51
F34.02451239999999
sVlng
p52
F-118.4112034
sassS'Sweet Lady Jane'
p53
g2
(g3
tp54
Rp55
g6
(dp56
S'Berry Cake'
p57
(dp58
g10
I00
sg11
I00
sg12
I00
sssg13
(lp59
I98
asg15
(lp60
(dp61
Vlat
p62
F34.083379
sVlng
p63
F-118.372525
sassS'Milo and Olive'
p64
g2
(g3
tp65
Rp66
g6
(dp67
S'Garlic Knot'
p68
(dp69
g10
I00
sg11
I00
sg12
I01
sssg13
(lp70
I74
asg15
(lp71
(dp72
Vlat
p73
F34.0375206
sVlng
p74
F-118.4760501
sassS'The Pantry'
p75
g2
(g3
tp76
Rp77
g6
(dp78
S'The Ten Pound Pancakes'
p79
(dp80
g10
I00
sg11
I00
sg12
I00
sssg13
(lp81
I39
asg15
(lp82
(dp83
Vlat
p84
F34.0463704
sVlng
p85
F-118.2629158
sassS'Petit Trois'
p86
g2
(g3
tp87
Rp88
g6
(dp89
S'French Omelette'
p90
(dp91
g10
I00
sg11
I00
sg12
I00
sssg13
(lp92
I77
asg15
(lp93
(dp94
Vlat
p95
F34.0841763
sVlng
p96
F-118.3381923
sassS"Jon and Vinny's"
p97
g2
(g3
tp98
Rp99
g6
(dp100
S'The LA Woman Pizza'
p101
(dp102
g10
I00
sg11
I00
sg12
I00
sssg13
(lp103
I34
asg15
(lp104
(dp105
Vlat
p106
F34.07865170000001
sVlng
p107
F-118.3612248
sassS'Angelini Osteria'
p108
g2
(g3
tp109
Rp110
g6
(dp111
S'Green Lasagna'
p112
(dp113
g10
I00
sg11
I00
sg12
I00
sssg13
(lp114
I85
asg15
(lp115
(dp116
Vlat
p117
F34.0764256
sVlng
p118
F-118.3491328
sassS"Pink's"
p119
g2
(g3
tp120
Rp121
g6
(dp122
S'Classic Chili Cheese Dog'
p123
(dp124
g10
I00
sg11
I00
sg12
I00
sssg13
(lp125
I12
asg15
(lp126
(dp127
Vlat
p128
F34.0838725
sVlng
p129
F-118.3442778
sassS'Gjusta'
p130
g2
(g3
tp131
Rp132
g6
(dp133
S'Porchetta Melt'
p134
(dp135
g10
I00
sg11
I00
sg12
I00
sssg13
(lp136
I78
asg15
(lp137
(dp138
Vlat
p139
F33.99527380000001
sVlng
p140
F-118.4745361
sassS'Alfred Coffee'
p141
g2
(g3
tp142
Rp143
g6
(dp144
S'Edible Espresso Cup'
p145
(dp146
g10
I00
sg11
I00
sg12
I00
sssg13
(lp147
I8
asg15
(lp148
(dp149
Vlat
p150
F34.0523574
sVlng
p151
F-118.4706409
sa(dp152
Vlat
p153
F34.0833724
sVlng
p154
F-118.3743114
sassS"Bob's Coffee and Donuts"
p155
g2
(g3
tp156
Rp157
g6
(dp158
S'Plain Cake Donut'
p159
(dp160
g10
I00
sg11
I00
sg12
I00
sssg13
(lp161
I40
asg15
(lp162
(dp163
Vlat
p164
F34.0720269
sVlng
p165
F-118.3598175
sassS'Yang Chow'
p166
g2
(g3
tp167
Rp168
g6
(dp169
S'Slippery Shrimp'
p170
(dp171
g10
I01
sg11
I00
sg12
I00
sssg13
(lp172
I55
asg15
(lp173
(dp174
Vlat
p175
F34.0629657
sVlng
p176
F-118.2382179
sassS'Jogosaki'
p177
g2
(g3
tp178
Rp179
g6
(dp180
S'Sushi Burrito '
p181
(dp182
g10
I00
sg11
I01
sg12
I00
sssg13
(lp183
I81
asg15
(lp184
(dp185
Vlat
p186
F34.0205202
sVlng
p187
F-118.4221912
sassS'Caioti'
p188
g2
(g3
tp189
Rp190
g6
(dp191
S'Pregnancy Salad'
p192
(dp193
g10
I00
sg11
I00
sg12
I00
sssg13
(lp194
I93
asg15
(lp195
(dp196
Vlat
p197
F34.149073
sVlng
p198
F-118.3788193
sassS"Vito's"
p199
g2
(g3
tp200
Rp201
g6
(dp202
S'White Pizza with Ricotta and Pesto'
p203
(dp204
g10
I00
sg11
I00
sg12
I00
sssg13
(lp205
I33
asg15
(lp206
(dp207
Vlat
p208
F34.086588
sVlng
p209
F-118.3760066
sa(dp210
Vlat
p211
F34.019082
sVlng
p212
F-118.455761
sassS'Golden Deli'
p213
g2
(g3
tp214
Rp215
g6
(dp216
S'Pho'
p217
(dp218
g10
I00
sg11
I00
sg12
I00
sssg13
(lp219
I3
asg15
(lp220
(dp221
Vlat
p222
F34.1028567
sVlng
p223
F-118.1117593
sa(dp224
Vlat
p225
F34.1067969
sVlng
p226
F-118.0586623
sassS'Maricos Jalisco'
p227
g2
(g3
tp228
Rp229
g6
(dp230
S'Shrimp Tacos'
p231
(dp232
g10
I01
sg11
I00
sg12
I00
sssg13
(lp233
I15
asg15
(lp234
(dp235
Vlat
p236
F34.0209537
sVlng
p237
F-118.2128456
sassS'Soot Bull Jeep'
p238
g2
(g3
tp239
Rp240
g6
(dp241
S'Galbi'
p242
(dp243
g10
I00
sg11
I00
sg12
I00
sssg13
(lp244
I42
asg15
(lp245
(dp246
Vlat
p247
F34.0575858
sVlng
p248
F-118.2958153
sassS'Eggslut'
p249
g2
(g3
tp250
Rp251
g6
(dp252
S'The Fairfax'
p253
(dp254
g10
I00
sg11
I00
sg12
I01
sssg13
(lp255
I20
asg15
(lp256
(dp257
Vlat
p258
F34.0506538
sVlng
p259
F-118.2486981
sassS'Original Pancake House'
p260
g2
(g3
tp261
Rp262
g6
(dp263
S'Dutch Baby Pancake'
p264
(dp265
g10
I00
sg11
I00
sg12
I00
sssg13
(lp266
I69
asg15
(lp267
(dp268
Vlat
p269
F33.8179892
sVlng
p270
F-118.381627
sa(dp271
Vlat
p272
F33.67409350000001
sVlng
p273
F-117.9528023
sa(dp274
Vlat
p275
F33.838927
sVlng
p276
F-117.89813
sa(dp277
Vlat
p278
F33.940221
sVlng
p279
F-117.981051
sassS"Lawry's"
p280
g2
(g3
tp281
Rp282
g6
(dp283
S'Prime Rib'
p284
(dp285
g10
I00
sg11
I00
sg12
I00
sssg13
(lp286
I82
asg15
(lp287
(dp288
Vlat
p289
F34.067832
sVlng
p290
F-118.376023
sa(dp291
Vlat
p292
F34.0443062
sVlng
p293
F-118.2649294
sa(dp294
Vlat
p295
F34.0577749
sVlng
p296
F-118.4198658
sassS"Langer's Deli"
p297
g2
(g3
tp298
Rp299
g6
(dp300
S'The Original #19'
p301
(dp302
g10
I00
sg11
I00
sg12
I00
sssg13
(lp303
I19
asg15
(lp304
(dp305
Vlat
p306
F34.0561767
sVlng
p307
F-118.2767998
sassS'Chi Spacca'
p308
g2
(g3
tp309
Rp310
g6
(dp311
S'Focaccia di Recco'
p312
(dp313
g10
I00
sg11
I00
sg12
I00
sssg13
(lp314
I79
asg15
(lp315
(dp316
Vlat
p317
F34.0832643
sVlng
p318
F-118.3390895
sassS'Cacao Mexicatessen'
p319
g2
(g3
tp320
Rp321
g6
(dp322
S'Mexican Hot Chocolate'
p323
(dp324
g10
I00
sg11
I00
sg12
I00
sssg13
(lp325
I23
asg15
(lp326
(dp327
Vlat
p328
F34.1392684
sVlng
p329
F-118.200662
sassS"Miceli's"
p330
g2
(g3
tp331
Rp332
g6
(dp333
S"Aunt Angie's Lasagna"
p334
(dp335
g10
I00
sg11
I00
sg12
I00
sssg13
(lp336
I73
asg15
(lp337
(dp338
Vlat
p339
F34.10134
sVlng
p340
F-118.336097
sa(dp341
Vlat
p342
F34.13463100000001
sVlng
p343
F-118.361089
sassS'Atticus Cremery and Pies'
p344
g2
(g3
tp345
Rp346
g6
(dp347
S'Lemon Lavender Ice Cream'
p348
(dp349
g10
I00
sg11
I00
sg12
I00
sssg13
(lp350
I71
asg15
(lp351
(dp352
Vlat
p353
F34.0399404
sVlng
p354
F-118.4294921
sassS'Sushi Gen'
p355
g2
(g3
tp356
Rp357
g6
(dp358
S'Chirashi Lunch Special'
p359
(dp360
g10
I01
sg11
I00
sg12
I00
sssg13
(lp361
I24
asg15
(lp362
(dp363
Vlat
p364
F34.046703
sVlng
p365
F-118.2387686
sassS'Plan Check'
p366
g2
(g3
tp367
Rp368
g6
(dp369
S'Sweet Potato Fries'
p370
(dp371
g10
I00
sg11
I00
sg12
I01
sssg13
(lp372
I25
asg15
(lp373
(dp374
Vlat
p375
F34.0439004
sVlng
p376
F-118.4459537
sa(dp377
Vlat
p378
F34.0776525
sVlng
p379
F-118.361609
sa(dp380
Vlat
p381
F34.0525983
sVlng
p382
F-118.2634476
sassS'El Tepeyac Cafe'
p383
g2
(g3
tp384
Rp385
g6
(dp386
S'The Hollenbeck Burrito'
p387
(dp388
g10
I00
sg11
I00
sg12
I00
sssg13
(lp389
I17
asg15
(lp390
(dp391
Vlat
p392
F34.047738
sVlng
p393
F-118.197579
sassS"Craig's"
p394
g2
(g3
tp395
Rp396
g6
(dp397
S'Honey Truffle Chicken'
p398
(dp399
g10
I00
sg11
I00
sg12
I00
sssg13
(lp400
I89
asg15
(lp401
(dp402
Vlat
p403
F34.0806196
sVlng
p404
F-118.3865179
sassS'Sotto'
p405
g2
(g3
tp406
Rp407
g6
(dp408
S'Guanciale Pizza'
p409
(dp410
g10
I00
sg11
I00
sg12
I00
sssg13
(lp411
I53
asg15
(lp412
(dp413
Vlat
p414
F34.0554217
sVlng
p415
F-118.3976085
sassS'Spago'
p416
g2
(g3
tp417
Rp418
g6
(dp419
S'Smoked Salmon Pizza'
p420
(dp421
g10
I00
sg11
I01
sg12
I00
sssg13
(lp422
I97
asg15
(lp423
(dp424
Vlat
p425
F34.0676269
sVlng
p426
F-118.3975928
sassS'Bestia'
p427
g2
(g3
tp428
Rp429
g6
(dp430
S'Charcuterie Board'
p431
(dp432
g10
I00
sg11
I00
sg12
I00
sssg13
(lp433
I50
asg15
(lp434
(dp435
Vlat
p436
F34.0336655
sVlng
p437
F-118.2292632
sassS'The Donut Man'
p438
g2
(g3
tp439
Rp440
g6
(dp441
S'Seasonal Strawberry Donut'
p442
(dp443
g10
I00
sg11
I00
sg12
I00
sssg13
(lp444
I10
asg15
(lp445
(dp446
Vlat
p447
F34.1289705
sVlng
p448
F-117.8497678
sassS'Ago'
p449
g2
(g3
tp450
Rp451
g6
(dp452
S'Osso Buco'
p453
(dp454
g10
I00
sg11
I00
sg12
I00
sssg13
(lp455
I86
asg15
(lp456
(dp457
Vlat
p458
F34.0821725
sVlng
p459
F-118.3756588
sassS'El Compadre'
p460
g2
(g3
tp461
Rp462
g6
(dp463
S'The Flaming Margarita'
p464
(dp465
g10
I00
sg11
I00
sg12
I00
sssg13
(lp466
I35
asg15
(lp467
(dp468
Vlat
p469
F34.0978073
sVlng
p470
F-118.3522447
sassS'Diddy Reese'
p471
g2
(g3
tp472
Rp473
g6
(dp474
S'Ice Cream Sandwich'
p475
(dp476
g10
I00
sg11
I00
sg12
I01
sssg13
(lp477
I5
asg15
(lp478
(dp479
Vlat
p480
F34.0630585
sVlng
p481
F-118.446859
sassS"Father's Office"
p482
g2
(g3
tp483
Rp484
g6
(dp485
S'The Office Burger'
p486
(dp487
g10
I00
sg11
I00
sg12
I01
sssg13
(lp488
I14
asg15
(lp489
(dp490
Vlat
p491
F34.0304038
sVlng
p492
F-118.3848082
sassS'Bay Cities Italian Deli'
p493
g2
(g3
tp494
Rp495
g6
(dp496
S'Spicy Godmother'
p497
(dp498
g10
I00
sg11
I00
sg12
I01
sssg13
(lp499
I41
asg15
(lp500
(dp501
Vlat
p502
F34.0178598
sVlng
p503
F-118.4892024
sassS'Urth Cafe'
p504
g2
(g3
tp505
Rp506
g6
(dp507
S'Green Tea Macha Latte'
p508
(dp509
g10
I00
sg11
I00
sg12
I00
sssg13
(lp510
I6
asg15
(lp511
(dp512
Vlat
p513
F34.04197
sVlng
p514
F-118.235422
sassS'Valerie Confections'
p515
g2
(g3
tp516
Rp517
g6
(dp518
S"Blum's Coffee Crunch Cake"
p519
(dp520
g10
I00
sg11
I00
sg12
I00
sssg13
(lp521
I68
asg15
(lp522
(dp523
Vlat
p524
F34.0733807
sVlng
p525
F-118.2860371
sassS'Chaya'
p526
g2
(g3
tp527
Rp528
g6
(dp529
S'Tuna Tartare'
p530
(dp531
g10
I00
sg11
I00
sg12
I00
sssg13
(lp532
I66
asg15
(lp533
(dp534
Vlat
p535
F34.0512948
sVlng
p536
F-118.2575046
sassS'El Cholo'
p537
g2
(g3
tp538
Rp539
g6
(dp540
S'Nachos'
p541
(dp542
g10
I00
sg11
I00
sg12
I00
ssS'Green corn tamales'
p543
(dp544
g10
I00
sg11
I00
sg12
I01
sssg13
(lp545
I63
aI88
asg15
(lp546
(dp547
Vlat
p548
F34.0243913
sVlng
p549
F-118.4920785
sa(dp550
Vlat
p551
F34.050257
sVlng
p552
F-118.3092343
sa(dp553
Vlat
p554
F34.0435993
sVlng
p555
F-118.2638228
sa(dp556
Vlat
p557
F33.94561960000001
sVlng
p558
F-118.4038455
sassS"Pan's"
p559
g2
(g3
tp560
Rp561
g6
(dp562
S'Fried Chicken'
p563
(dp564
g10
I00
sg11
I00
sg12
I00
sssg13
(lp565
I70
asg15
(lp566
(dp567
Vlat
p568
F34.0406956
sVlng
p569
F-118.4278467
sa(dp570
Vlat
p571
F33.9766621
sVlng
p572
F-118.3719284
sa(dp573
Vlat
p574
F33.99208
sVlng
p575
F-118.422736
sa(dp576
Vlat
p577
F34.0755684
sVlng
p578
F-118.3544883
sassS"Musso & Frank's"
p579
g2
(g3
tp580
Rp581
g6
(dp582
S'Flannel Cakes'
p583
(dp584
g10
I00
sg11
I00
sg12
I00
sssg13
(lp585
I51
asg15
(lp586
(dp587
Vlat
p588
F34.1018304
sVlng
p589
F-118.3354084
sassS'Katsu-Ya'
p590
g2
(g3
tp591
Rp592
g6
(dp593
S'Spicy Tuna Crispy Rice'
p594
(dp595
g10
I00
sg11
I00
sg12
I00
sssg13
(lp596
I58
asg15
(lp597
(dp598
Vlat
p599
F34.053484
sVlng
p600
F-118.468365
sa(dp601
Vlat
p602
F34.1014509
sVlng
p603
F-118.3270568
sa(dp604
Vlat
p605
F34.04456119999999
sVlng
p606
F-118.2656156
sassS"Porto's"
p607
g2
(g3
tp608
Rp609
g6
(dp610
S'Guave Cheese Pastry'
p611
(dp612
g10
I00
sg11
I00
sg12
I00
sssg13
(lp613
I46
asg15
(lp614
(dp615
Vlat
p616
F34.1676971
sVlng
p617
F-118.3465324
sa(dp618
Vlat
p619
F34.1504211
sVlng
p620
F-118.2554535
sassS"Ricky's Fish Tacos"
p621
g2
(g3
tp622
Rp623
g6
(dp624
S'Fish Tacos'
p625
(dp626
g10
I00
sg11
I00
sg12
I00
sssg13
(lp627
I57
asg15
(lp628
(dp629
Vlat
p630
F34.09688149999999
sVlng
p631
F-118.2872444
sassS'Daikokuya Ramen'
p632
g2
(g3
tp633
Rp634
g6
(dp635
S'Spicy Miso Ramen'
p636
(dp637
g10
I00
sg11
I00
sg12
I00
sssg13
(lp638
I99
asg15
(lp639
(dp640
Vlat
p641
F34.0379806
sVlng
p642
F-118.4407598
sa(dp643
Vlat
p644
F34.0500021
sVlng
p645
F-118.2400679
sassS'The Apple Pan'
p646
g2
(g3
tp647
Rp648
g6
(dp649
S'Banana Cr\x8fme Pie'
p650
(dp651
g10
I00
sg11
I00
sg12
I01
ssS'Hickory Burger'
p652
(dp653
g10
I00
sg11
I00
sg12
I00
sssg13
(lp654
I31
aI90
asg15
(lp655
(dp656
Vlat
p657
F34.0406956
sVlng
p658
F-118.4278467
sassS'Dodger Stadium'
p659
g2
(g3
tp660
Rp661
g6
(dp662
S'Dodger Dog'
p663
(dp664
g10
I00
sg11
I00
sg12
I00
sssg13
(lp665
I7
asg15
(lp666
(dp667
Vlat
p668
F34.073851
sVlng
p669
F-118.2399583
sassS'La Scala'
p670
g2
(g3
tp671
Rp672
g6
(dp673
S'Original Chopped Salad'
p674
(dp675
g10
I00
sg11
I00
sg12
I00
sssg13
(lp676
I47
asg15
(lp677
(dp678
Vlat
p679
F34.0529574
sVlng
p680
F-118.4668351
sassS'Baroo'
p681
g2
(g3
tp682
Rp683
g6
(dp684
S'Noorook'
p685
(dp686
g10
I00
sg11
I00
sg12
I00
sssg13
(lp687
I76
asg15
(lp688
(dp689
Vlat
p690
F34.0904444
sVlng
p691
F-118.3138278
sassS'Eagle Rock Italian Bakery'
p692
g2
(g3
tp693
Rp694
g6
(dp695
S'Rum Cake'
p696
(dp697
g10
I00
sg11
I00
sg12
I00
sssg13
(lp698
I65
asg15
(lp699
(dp700
Vlat
p701
F34.1392187
sVlng
p702
F-118.2046433
sassS"Bob's Big Boy"
p703
g2
(g3
tp704
Rp705
g6
(dp706
S'Big Boy Combo'
p707
(dp708
g10
I00
sg11
I00
sg12
I00
sssg13
(lp709
I72
asg15
(lp710
(dp711
Vlat
p712
F34.2315838
sVlng
p713
F-118.5618725
sa(dp714
Vlat
p715
F34.1523958
sVlng
p716
F-118.3461425
sassS'Din Tai Fung'
p717
g2
(g3
tp718
Rp719
g6
(dp720
S'Soup Dumplings'
p721
(dp722
g10
I00
sg11
I00
sg12
I01
sssg13
(lp723
I43
asg15
(lp724
(dp725
Vlat
p726
F34.1429849
sVlng
p727
F-118.2553442
sa(dp728
Vlat
p729
F34.1350798
sVlng
p730
F-118.0517164
sa(dp731
Vlat
p732
F33.6920939
sVlng
p733
F-117.8877851
sassS'Providence'
p734
g2
(g3
tp735
Rp736
g6
(dp737
S'The Ugly Bunch'
p738
(dp739
g10
I00
sg11
I00
sg12
I00
sssg13
(lp740
I59
asg15
(lp741
(dp742
Vlat
p743
F34.0836413
sVlng
p744
F-118.3302036
sassS'Magal Korean BBQ'
p745
g2
(g3
tp746
Rp747
g6
(dp748
S'Beef Combo'
p749
(dp750
g10
I00
sg11
I00
sg12
I00
sssg13
(lp751
I95
asg15
(lp752
(dp753
Vlat
p754
F34.0575419
sVlng
p755
F-118.3055724
sassS'Pacific Dining Car'
p756
g2
(g3
tp757
Rp758
g6
(dp759
S'Baseball Steak (w/lobster tail)'
p760
(dp761
g10
I01
sg11
I00
sg12
I00
sssg13
(lp762
I96
asg15
(lp763
(dp764
Vlat
p765
F34.0367387
sVlng
p766
F-118.4763373
sa(dp767
Vlat
p768
F34.0554918
sVlng
p769
F-118.2660331
sassS'Animal'
p770
g2
(g3
tp771
Rp772
g6
(dp773
S'Bacon Chocolte Crunch Bar'
p774
(dp775
g10
I00
sg11
I00
sg12
I00
sssg13
(lp776
I75
asg15
(lp777
(dp778
Vlat
p779
F34.0792295
sVlng
p780
F-118.3617722
sassS'The Dal Rae'
p781
g2
(g3
tp782
Rp783
g6
(dp784
S'Table-side Caeser'
p785
(dp786
g10
I00
sg11
I00
sg12
I00
sssg13
(lp787
I61
asg15
(lp788
(dp789
Vlat
p790
F33.9829117
sVlng
p791
F-118.0961274
sassS'Osteria Mozza'
p792
g2
(g3
tp793
Rp794
g6
(dp795
S'Burrata'
p796
(dp797
g10
I00
sg11
I00
sg12
I00
sssg13
(lp798
I92
asg15
(lp799
(dp800
Vlat
p801
F34.0832515
sVlng
p802
F-118.338874
sassS'Stella Barra'
p803
g2
(g3
tp804
Rp805
g6
(dp806
S'Rice Krispy Treat Cookies'
p807
(dp808
g10
I00
sg11
I00
sg12
I00
sssg13
(lp809
I26
asg15
(lp810
(dp811
Vlat
p812
F34.0977183
sVlng
p813
F-118.3286804
sassS'Chart House'
p814
g2
(g3
tp815
Rp816
g6
(dp817
S'Chocolate Lava Cake'
p818
(dp819
g10
I00
sg11
I00
sg12
I00
sssg13
(lp820
I29
asg15
(lp821
(dp822
Vlat
p823
F33.9786922
sVlng
p824
F-118.4533319
sassS'The Polo Lounge'
p825
g2
(g3
tp826
Rp827
g6
(dp828
S'McCarthy Salad'
p829
(dp830
g10
I00
sg11
I00
sg12
I00
sssg13
(lp831
I84
asg15
(lp832
(dp833
Vlat
p834
F34.081528
sVlng
p835
F-118.413855
sassS'Guerilla Tacos'
p836
g2
(g3
tp837
Rp838
g6
(dp839
S'Sweet Potato Tacos'
p840
(dp841
g10
I00
sg11
I00
sg12
I01
sssg13
(lp842
I13
asg15
(lp843
(dp844
Vlat
p845
F34.045701
sVlng
p846
F-118.235316
sa(dp847
Vlat
p848
F34.0310922
sVlng
p849
F-118.3778603
sassS"Canter's Deli"
p850
g2
(g3
tp851
Rp852
g6
(dp853
S'Matzo Ball Soup'
p854
(dp855
g10
I00
sg11
I00
sg12
I00
ssS'Pastrami Sandwich'
p856
(dp857
g10
I00
sg11
I00
sg12
I00
sssg13
(lp858
I27
aI32
asg15
(lp859
(dp860
Vlat
p861
F34.0789
sVlng
p862
F-118.361722
sassS'Melisse'
p863
g2
(g3
tp864
Rp865
g6
(dp866
S'Lobster Bolognese'
p867
(dp868
g10
I01
sg11
I00
sg12
I00
sssg13
(lp869
I80
asg15
(lp870
(dp871
Vlat
p872
F34.0242934
sVlng
p873
F-118.4912758
sassS'Musso and Frank Grill'
p874
g2
(g3
tp875
Rp876
g6
(dp877
S'Martini'
p878
(dp879
g10
I00
sg11
I00
sg12
I00
sssg13
(lp880
I87
asg15
(lp881
(dp882
Vlat
p883
F34.1018304
sVlng
p884
F-118.3354084
sassS'Chego'
p885
g2
(g3
tp886
Rp887
g6
(dp888
S'Chubby Pork Belly Bowl '
p889
(dp890
g10
I00
sg11
I00
sg12
I00
sssg13
(lp891
I37
asg15
(lp892
(dp893
Vlat
p894
F34.0613819
sVlng
p895
F-118.2396111
sassS'South Bevery Grill'
p896
g2
(g3
tp897
Rp898
g6
(dp899
S'Dover Sole'
p900
(dp901
g10
I00
sg11
I00
sg12
I00
sssg13
(lp902
I83
asg15
(lp903
(dp904
Vlat
p905
F34.066125
sVlng
p906
F-118.3989013
sassS'Pie and Burger'
p907
g2
(g3
tp908
Rp909
g6
(dp910
S'Cheeseburger '
p911
(dp912
g10
I00
sg11
I00
sg12
I00
sssg13
(lp913
I100
asg15
(lp914
(dp915
Vlat
p916
F34.1360062
sVlng
p917
F-118.1314835
sa(dp918
Vlat
p919
F34.0406956
sVlng
p920
F-118.4278467
sassS'sugarfish'
p921
g2
(g3
tp922
Rp923
g6
(dp924
S'Trust Me'
p925
(dp926
g10
I01
sg11
I00
sg12
I00
sssg13
(lp927
I49
asg15
(lp928
(dp929
Vlat
p930
F34.05351789999999
sVlng
p931
F-118.463145
sa(dp932
Vlat
p933
F34.0734652
sVlng
p934
F-118.3442974
sa(dp935
Vlat
p936
F34.047409
sVlng
p937
F-118.257171
sa(dp938
Vlat
p939
F34.09829810000001
sVlng
p940
F-118.3226969
sassS'Crossroads Kitchen'
p941
g2
(g3
tp942
Rp943
g6
(dp944
S'Artichoke Oysters'
p945
(dp946
g10
I01
sg11
I00
sg12
I00
sssg13
(lp947
I67
asg15
(lp948
(dp949
Vlat
p950
F34.083527
sVlng
p951
F-118.370157
sassS'Falafel Arax'
p952
g2
(g3
tp953
Rp954
g6
(dp955
S'Chicken Shawarma Baguette Sandwich'
p956
(dp957
g10
I00
sg11
I00
sg12
I00
sssg13
(lp958
I48
asg15
(lp959
(dp960
Vlat
p961
F34.09105400000001
sVlng
p962
F-118.300799
sassS'Umami Burger'
p963
g2
(g3
tp964
Rp965
g6
(dp966
S'The Umami Burger'
p967
(dp968
g10
I00
sg11
I00
sg12
I00
sssg13
(lp969
I54
asg15
(lp970
(dp971
Vlat
p972
F34.073067
sVlng
p973
F-118.358497
sa(dp974
Vlat
p975
F34.09892810000001
sVlng
p976
F-118.3292468
sa(dp977
Vlat
p978
F33.942257
sVlng
p979
F-118.407042
sa(dp980
Vlat
p981
F34.0424672
sVlng
p982
F-118.2556542
sa(dp983
Vlat
p984
F34.10069599999999
sVlng
p985
F-118.290505
sa(dp986
Vlat
p987
F34.0455554
sVlng
p988
F-118.2367412
sassS'Pizzaria Mozza'
p989
g2
(g3
tp990
Rp991
g6
(dp992
S'Butterscotch Budino'
p993
(dp994
g10
I00
sg11
I00
sg12
I00
ssS'Fennel Sausage Pizza'
p995
(dp996
g10
I00
sg11
I00
sg12
I00
sssg13
(lp997
I38
aI60
asg15
(lp998
(dp999
Vlat
p1000
F34.0831213
sVlng
p1001
F-118.3388633
sassS"Roscoe's Chicken and Waffles"
p1002
g2
(g3
tp1003
Rp1004
g6
(dp1005
S'The #9'
p1006
(dp1007
g10
I00
sg11
I00
sg12
I00
sssg13
(lp1008
I30
asg15
(lp1009
(dp1010
Vlat
p1011
F34.04752879999999
sVlng
p1012
F-118.3462124
sa(dp1013
Vlat
p1014
F34.0985783
sVlng
p1015
F-118.3221555
sa(dp1016
Vlat
p1017
F33.9598486
sVlng
p1018
F-118.2745223
sa(dp1019
Vlat
p1020
F33.9618174
sVlng
p1021
F-118.3674194
sassS"Dan Tana's"
p1022
g2
(g3
tp1023
Rp1024
g6
(dp1025
S'Chicken Parm'
p1026
(dp1027
g10
I00
sg11
I00
sg12
I00
sssg13
(lp1028
I62
asg15
(lp1029
(dp1030
Vlat
p1031
F34.0817517
sVlng
p1032
F-118.3890223
sassS'La Estrella'
p1033
g2
(g3
tp1034
Rp1035
g6
(dp1036
S'Carne Tacos'
p1037
(dp1038
g10
I00
sg11
I00
sg12
I00
sssg13
(lp1039
I36
asg15
(lp1040
(dp1041
Vlat
p1042
F34.1119185
sVlng
p1043
F-118.1884226
sa(dp1044
Vlat
p1045
F34.026441
sVlng
p1046
F-118.2016872
sa(dp1047
Vlat
p1048
F34.0903333
sVlng
p1049
F-118.3832903
sassS'Zankou Chicken'
p1050
g2
(g3
tp1051
Rp1052
g6
(dp1053
S'Tarna Warp'
p1054
(dp1055
g10
I00
sg11
I00
sg12
I01
sssg13
(lp1056
I44
asg15
(lp1057
(dp1058
Vlat
p1059
F34.0471585
sVlng
p1060
F-118.4437234
sa(dp1061
Vlat
p1062
F34.0982898
sVlng
p1063
F-118.3606741
sa(dp1064
Vlat
p1065
F34.0985315
sVlng
p1066
F-118.3002893
sassS'In-N-Out'
p1067
g2
(g3
tp1068
Rp1069
g6
(dp1070
S'Animal Style Fries '
p1071
(dp1072
g10
I00
sg11
I00
sg12
I01
sssg13
(lp1073
I11
asg15
(lp1074
(dp1075
Vlat
p1076
F34.06306399999999
sVlng
p1077
F-118.448026
sa(dp1078
Vlat
p1079
F34.0264684
sVlng
p1080
F-118.3942793
sa(dp1081
Vlat
p1082
F33.95370630000001
sVlng
p1083
F-118.396763
sa(dp1084
Vlat
p1085
F34.1350731
sVlng
p1086
F-118.3606042
sa(dp1087
Vlat
p1088
F33.945794
sVlng
p1089
F-118.33238
sassS'Wurstkuche'
p1090
g2
(g3
tp1091
Rp1092
g6
(dp1093
S'The Rattlesnake and Rabbit Bratwurst'
p1094
(dp1095
g10
I00
sg11
I00
sg12
I01
sssg13
(lp1096
I18
asg15
(lp1097
(dp1098
Vlat
p1099
F33.99974050000001
sVlng
p1100
F-118.4649579
sa(dp1101
Vlat
p1102
F34.045601
sVlng
p1103
F-118.236064
sassS'Sycamore Kitchen'
p1104
g2
(g3
tp1105
Rp1106
g6
(dp1107
S'Mediterranean Gem Salad'
p1108
(dp1109
g10
I00
sg11
I00
sg12
I00
sssg13
(lp1110
I2
asg15
(lp1111
(dp1112
Vlat
p1113
F34.0723653
sVlng
p1114
F-118.344421
sassS'Bottega Louie'
p1115
g2
(g3
tp1116
Rp1117
g6
(dp1118
S'Macaron'
p1119
(dp1120
g10
I00
sg11
I00
sg12
I00
sssg13
(lp1121
I9
asg15
(lp1122
(dp1123
Vlat
p1124
F34.04695359999999
sVlng
p1125
F-118.2564831
sassS'Sqirl'
p1126
g2
(g3
tp1127
Rp1128
g6
(dp1129
S'Crispy Rice Salad'
p1130
(dp1131
g10
I00
sg11
I00
sg12
I00
sssg13
(lp1132
I52
asg15
(lp1133
(dp1134
Vlat
p1135
F34.0842999
sVlng
p1136
F-118.286684
sassS"Greenblatt's Deli"
p1137
g2
(g3
tp1138
Rp1139
g6
(dp1140
S'Chicken Noodle Soup'
p1141
(dp1142
g10
I00
sg11
I00
sg12
I00
sssg13
(lp1143
I4
asg15
(lp1144
(dp1145
Vlat
p1146
F34.0981571
sVlng
p1147
F-118.3646505
sassS'Yogurt Stop'
p1148
g2
(g3
tp1149
Rp1150
g6
(dp1151
S'Red Velvet Froyo'
p1152
(dp1153
g10
I00
sg11
I00
sg12
I00
sssg13
(lp1154
I21
asg15
(lp1155
(dp1156
Vlat
p1157
F34.08586100000001
sVlng
p1158
F-118.383084
sassS'Casa Bianca Pizza Pie'
p1159
g2
(g3
tp1160
Rp1161
g6
(dp1162
S'Pepperoni Pizza'
p1163
(dp1164
g10
I00
sg11
I00
sg12
I00
ssS'Fried Eggplant Pizza'
p1165
(dp1166
g10
I00
sg11
I00
sg12
I00
sssg13
(lp1167
I64
aI94
asg15
(lp1168
(dp1169
Vlat
p1170
F34.13919800000001
sVlng
p1171
F-118.2028302
sassS'Cofax'
p1172
g2
(g3
tp1173
Rp1174
g6
(dp1175
S'Pastrami Breakfast Burrito'
p1176
(dp1177
g10
I00
sg11
I00
sg12
I00
sssg13
(lp1178
I56
asg15
(lp1179
(dp1180
Vlat
p1181
F34.07933599999999
sVlng
p1182
F-118.361266
sassS"Phillipe's"
p1183
g2
(g3
tp1184
Rp1185
g6
(dp1186
S'French Dip'
p1187
(dp1188
g10
I00
sg11
I00
sg12
I00
sssg13
(lp1189
I1
asg15
(lp1190
(dp1191
Vlat
p1192
F34.059768
sVlng
p1193
F-118.237035
sassS'The Bigg Chill'
p1194
g2
(g3
tp1195
Rp1196
g6
(dp1197
S'Vegan Cookie Dough'
p1198
(dp1199
g10
I00
sg11
I00
sg12
I01
sssg13
(lp1200
I45
asg15
(lp1201
(dp1202
Vlat
p1203
F34.04371440000001
sVlng
p1204
F-118.4313531
sass.