(dp0
S''
p1
ccollections
defaultdict
p2
(c__builtin__
dict
p3
tp4
Rp5
S'items'
p6
(dp7
S'Bacon Wrapped Street Dog'
p8
(dp9
S'Can not have'
p10
I00
sS'Do not want'
p11
I00
sS'Had?'
p12
I00
sssS'number'
p13
(lp14
I22
asS'locations'
p15
(lp16
(dp17
Vlat
p18
F34.0522342
sVlng
p19
F-118.2436849
sassS'CVT Softserve'
p20
g2
(g3
tp21
Rp22
g6
(dp23
S'Twist Cone'
p24
(dp25
g10
I00
sg11
I00
sg12
I00
sssg13
(lp26
I28
asg15
(lp27
(dp28
Vlat
p29
F34.1068751
sVlng
p30
F-118.2718642
sassS'Magnolia Bakery'
p31
g2
(g3
tp32
Rp33
g6
(dp34
S'Banana Bread Pudding'
p35
(dp36
g10
I00
sg11
I00
sg12
I01
sssg13
(lp37
I91
asg15
(lp38
(dp39
Vlat
p40
F34.073116
sVlng
p41
F-118.3730101
sassS'Kogi'
p42
g2
(g3
tp43
Rp44
g6
(dp45
S'Short Rib Tacos'
p46
(dp47
g10
I00
sg11
I00
sg12
I00
sssg13
(lp48
I16
asg15
(lp49
(dp50
Vlat
p51
F34.02451239999999
sVlng
p52
F-118.4112034
sassS'Sweet Lady Jane'
p53
g2
(g3
tp54
Rp55
g6
(dp56
S'Berry Cake'
p57
(dp58
g10
I00
sg11
I00
sg12
I00
sssg13
(lp59
I98
asg15
(lp60
(dp61
Vlat
p62
F34.083379
sVlng
p63
F-118.372525
sassS'Milo and Olive'
p64
g2
(g3
tp65
Rp66
g6
(dp67
S'Garlic Knot'
p68
(dp69
g10
I00
sg11
I00
sg12
I01
sssg13
(lp70
I74
asg15
(lp71
(dp72
Vlat
p73
F34.0375206
sVlng
p74
F-118.4760501
sassS'The Pantry'
p75
g2
(g3
tp76
Rp77
g6
(dp78
S'The Ten Pound Pancakes'
p79
(dp80
g10
I00
sg11
I00
sg12
I00
sssg13
(lp81
I39
asg15
(lp82
(dp83
Vlat
p84
F34.0463704
sVlng
p85
F-118.2629158
sassS'Petit Trois'
p86
g2
(g3
tp87
Rp88
g6
(dp89
S'French Omelette'
p90
(dp91
g10
I00
sg11
I00
sg12
I00
sssg13
(lp92
I77
asg15
(lp93
(dp94
Vlat
p95
F34.0841763
sVlng
p96
F-118.3381923
sassS"Jon and Vinny's"
p97
g2
(g3
tp98
Rp99
g6
(dp100
S'The LA Woman Pizza'
p101
(dp102
g10
I00
sg11
I00
sg12
I00
sssg13
(lp103
I34
asg15
(lp104
(dp105
Vlat
p106
F34.07865170000001
sVlng
p107
F-118.3612248
sassS'Angelini Osteria'
p108
g2
(g3
tp109
Rp110
g6
(dp111
S'Green Lasagna'
p112
(dp113
g10
I00
sg11
I00
sg12
I00
sssg13
(lp114
I85
asg15
(lp115
(dp116
Vlat
p117
F34.0764256
sVlng
p118
F-118.3491328
sassS"Pink's"
p119
g2
(g3
tp120
Rp121
g6
(dp122
S'Classic Chili Cheese Dog'
p123
(dp124
g10
I00
sg11
I00
sg12
I00
sssg13
(lp125
I12
asg15
(lp126
(dp127
Vlat
p128
F34.0838725
sVlng
p129
F-118.3442778
sassS'Gjusta'
p130
g2
(g3
tp131
Rp132
g6
(dp133
S'Porchetta Melt'
p134
(dp135
g10
I00
sg11
I00
sg12
I00
sssg13
(lp136
I78
asg15
(lp137
(dp138
Vlat
p139
F33.99527380000001
sVlng
p140
F-118.4745361
sassS'Alfred Coffee'
p141
g2
(g3
tp142
Rp143
g6
(dp144
S'Edible Espresso Cup'
p145
(dp146
g10
I00
sg11
I00
sg12
I00
sssg13
(lp147
I8
asg15
(lp148
(dp149
Vlat
p150
F34.0523574
sVlng
p151
F-118.4706409
sa(dp152
Vlat
p153
F34.0833724
sVlng
p154
F-118.3743114
sassS"Bob's Coffee and Donuts"
p155
g2
(g3
tp156
Rp157
g6
(dp158
S'Plain Cake Donut'
p159
(dp160
g10
I00
sg11
I00
sg12
I00
sssg13
(lp161
I40
asg15
(lp162
(dp163
Vlat
p164
F34.0720269
sVlng
p165
F-118.3598175
sassS'Yang Chow'
p166
g2
(g3
tp167
Rp168
g6
(dp169
S'Slippery Shrimp'
p170
(dp171
g10
I01
sg11
I00
sg12
I00
sssg13
(lp172
I55
asg15
(lp173
(dp174
Vlat
p175
F34.0629657
sVlng
p176
F-118.2382179
sassS'Jogosaki'
p177
g2
(g3
tp178
Rp179
g6
(dp180
S'Sushi Burrito '
p181
(dp182
g10
I00
sg11
I01
sg12
I00
sssg13
(lp183
I81
asg15
(lp184
(dp185
Vlat
p186
F34.0205202
sVlng
p187
F-118.4221912
sassS'Caioti'
p188
g2
(g3
tp189
Rp190
g6
(dp191
S'Pregnancy Salad'
p192
(dp193
g10
I00
sg11
I00
sg12
I00
sssg13
(lp194
I93
asg15
(lp195
(dp196
Vlat
p197
F34.149073
sVlng
p198
F-118.3788193
sassS"Vito's"
p199
g2
(g3
tp200
Rp201
g6
(dp202
S'White Pizza with Ricotta and Pesto'
p203
(dp204
g10
I00
sg11
I00
sg12
I00
sssg13
(lp205
I33
asg15
(lp206
(dp207
Vlat
p208
F34.086588
sVlng
p209
F-118.3760066
sa(dp210
Vlat
p211
F34.019082
sVlng
p212
F-118.455761
sassS'Golden Deli'
p213
g2
(g3
tp214
Rp215
g6
(dp216
S'Pho'
p217
(dp218
g10
I00
sg11
I00
sg12
I00
sssg13
(lp219
I3
asg15
(lp220
(dp221
Vlat
p222
F34.1028567
sVlng
p223
F-118.1117593
sa(dp224
Vlat
p225
F34.1067969
sVlng
p226
F-118.0586623
sassS'Maricos Jalisco'
p227
g2
(g3
tp228
Rp229
g6
(dp230
S'Shrimp Tacos'
p231
(dp232
g10
I01
sg11
I00
sg12
I00
sssg13
(lp233
I15
asg15
(lp234
(dp235
Vlat
p236
F34.0209537
sVlng
p237
F-118.2128456
sassS'Soot Bull Jeep'
p238
g2
(g3
tp239
Rp240
g6
(dp241
S'Galbi'
p242
(dp243
g10
I00
sg11
I00
sg12
I00
sssg13
(lp244
I42
asg15
(lp245
(dp246
Vlat
p247
F34.0575858
sVlng
p248
F-118.2958153
sassS'Eggslut'
p249
g2
(g3
tp250
Rp251
g6
(dp252
S'The Fairfax'
p253
(dp254
g10
I00
sg11
I00
sg12
I01
sssg13
(lp255
I20
asg15
(lp256
(dp257
Vlat
p258
F34.0506538
sVlng
p259
F-118.2486981
sassS'Original Pancake House'
p260
g2
(g3
tp261
Rp262
g6
(dp263
S'Dutch Baby Pancake'
p264
(dp265
g10
I00
sg11
I00
sg12
I00
sssg13
(lp266
I69
asg15
(lp267
(dp268
Vlat
p269
F33.8179892
sVlng
p270
F-118.381627
sa(dp271
Vlat
p272
F33.67409350000001
sVlng
p273
F-117.9528023
sa(dp274
Vlat
p275
F33.838927
sVlng
p276
F-117.89813
sa(dp277
Vlat
p278
F33.940221
sVlng
p279
F-117.981051
sassS"Lawry's"
p280
g2
(g3
tp281
Rp282
g6
(dp283
S'Prime Rib'
p284
(dp285
g10
I00
sg11
I00
sg12
I00
sssg13
(lp286
I82
asg15
(lp287
(dp288
Vlat
p289
F34.067832
sVlng
p290
F-118.376023
sa(dp291
Vlat
p292
F34.0443062
sVlng
p293
F-118.2649294
sa(dp294
Vlat
p295
F34.0577749
sVlng
p296
F-118.4198658
sassS"Langer's Deli"
p297
g2
(g3
tp298
Rp299
g6
(dp300
S'The Original #19'
p301
(dp302
g10
I00
sg11
I00
sg12
I00
sssg13
(lp303
I19
asg15
(lp304
(dp305
Vlat
p306
F34.0561767
sVlng
p307
F-118.2767998
sassS'Chi Spacca'
p308
g2
(g3
tp309
Rp310
g6
(dp311
S'Focaccia di Recco'
p312
(dp313
g10
I00
sg11
I00
sg12
I00
sssg13
(lp314
I79
asg15
(lp315
(dp316
Vlat
p317
F34.0832643
sVlng
p318
F-118.3390895
sassS'Cacao Mexicatessen'
p319
g2
(g3
tp320
Rp321
g6
(dp322
S'Mexican Hot Chocolate'
p323
(dp324
g10
I00
sg11
I00
sg12
I00
sssg13
(lp325
I23
asg15
(lp326
(dp327
Vlat
p328
F34.1392684
sVlng
p329
F-118.200662
sassS'The Dal Rae'
p330
g2
(g3
tp331
Rp332
g6
(dp333
S'Table-side Caeser'
p334
(dp335
g10
I00
sg11
I00
sg12
I00
sssg13
(lp336
I61
asg15
(lp337
(dp338
Vlat
p339
F33.9829117
sVlng
p340
F-118.0961274
sassS'Atticus Cremery and Pies'
p341
g2
(g3
tp342
Rp343
g6
(dp344
S'Lemon Lavender Ice Cream'
p345
(dp346
g10
I00
sg11
I00
sg12
I00
sssg13
(lp347
I71
asg15
(lp348
(dp349
Vlat
p350
F34.0399404
sVlng
p351
F-118.4294921
sassS'Sushi Gen'
p352
g2
(g3
tp353
Rp354
g6
(dp355
S'Chirashi Lunch Special'
p356
(dp357
g10
I01
sg11
I00
sg12
I00
sssg13
(lp358
I24
asg15
(lp359
(dp360
Vlat
p361
F34.046703
sVlng
p362
F-118.2387686
sassS'Plan Check'
p363
g2
(g3
tp364
Rp365
g6
(dp366
S'Sweet Potato Fries'
p367
(dp368
g10
I00
sg11
I00
sg12
I01
sssg13
(lp369
I25
asg15
(lp370
(dp371
Vlat
p372
F34.0439004
sVlng
p373
F-118.4459537
sa(dp374
Vlat
p375
F34.0776525
sVlng
p376
F-118.361609
sa(dp377
Vlat
p378
F34.0525983
sVlng
p379
F-118.2634476
sassS'El Tepeyac Cafe'
p380
g2
(g3
tp381
Rp382
g6
(dp383
S'The Hollenbeck Burrito'
p384
(dp385
g10
I00
sg11
I00
sg12
I00
sssg13
(lp386
I17
asg15
(lp387
(dp388
Vlat
p389
F34.047738
sVlng
p390
F-118.197579
sassS"Craig's"
p391
g2
(g3
tp392
Rp393
g6
(dp394
S'Honey Truffle Chicken'
p395
(dp396
g10
I00
sg11
I00
sg12
I00
sssg13
(lp397
I89
asg15
(lp398
(dp399
Vlat
p400
F34.0806196
sVlng
p401
F-118.3865179
sassS'Sotto'
p402
g2
(g3
tp403
Rp404
g6
(dp405
S'Guanciale Pizza'
p406
(dp407
g10
I00
sg11
I00
sg12
I00
sssg13
(lp408
I53
asg15
(lp409
(dp410
Vlat
p411
F34.0554217
sVlng
p412
F-118.3976085
sassS'Spago'
p413
g2
(g3
tp414
Rp415
g6
(dp416
S'Smoked Salmon Pizza'
p417
(dp418
g10
I00
sg11
I01
sg12
I00
sssg13
(lp419
I97
asg15
(lp420
(dp421
Vlat
p422
F34.0676269
sVlng
p423
F-118.3975928
sassS'Bestia'
p424
g2
(g3
tp425
Rp426
g6
(dp427
S'Charcuterie Board'
p428
(dp429
g10
I00
sg11
I00
sg12
I00
sssg13
(lp430
I50
asg15
(lp431
(dp432
Vlat
p433
F34.0336655
sVlng
p434
F-118.2292632
sassS'The Donut Man'
p435
g2
(g3
tp436
Rp437
g6
(dp438
S'Seasonal Strawberry Donut'
p439
(dp440
g10
I00
sg11
I00
sg12
I00
sssg13
(lp441
I10
asg15
(lp442
(dp443
Vlat
p444
F34.1289705
sVlng
p445
F-117.8497678
sassS'Ago'
p446
g2
(g3
tp447
Rp448
g6
(dp449
S'Osso Buco'
p450
(dp451
g10
I00
sg11
I00
sg12
I00
sssg13
(lp452
I86
asg15
(lp453
(dp454
Vlat
p455
F34.0821725
sVlng
p456
F-118.3756588
sassS'El Compadre'
p457
g2
(g3
tp458
Rp459
g6
(dp460
S'The Flaming Margarita'
p461
(dp462
g10
I00
sg11
I00
sg12
I00
sssg13
(lp463
I35
asg15
(lp464
(dp465
Vlat
p466
F34.0978073
sVlng
p467
F-118.3522447
sassS'Diddy Reese'
p468
g2
(g3
tp469
Rp470
g6
(dp471
S'Ice Cream Sandwich'
p472
(dp473
g10
I00
sg11
I00
sg12
I01
sssg13
(lp474
I5
asg15
(lp475
(dp476
Vlat
p477
F34.0630585
sVlng
p478
F-118.446859
sassS"Father's Office"
p479
g2
(g3
tp480
Rp481
g6
(dp482
S'The Office Burger'
p483
(dp484
g10
I00
sg11
I00
sg12
I01
sssg13
(lp485
I14
asg15
(lp486
(dp487
Vlat
p488
F34.0304038
sVlng
p489
F-118.3848082
sassS'Bay Cities Italian Deli'
p490
g2
(g3
tp491
Rp492
g6
(dp493
S'Spicy Godmother'
p494
(dp495
g10
I00
sg11
I00
sg12
I01
sssg13
(lp496
I41
asg15
(lp497
(dp498
Vlat
p499
F34.0178598
sVlng
p500
F-118.4892024
sassS'Urth Cafe'
p501
g2
(g3
tp502
Rp503
g6
(dp504
S'Green Tea Macha Latte'
p505
(dp506
g10
I00
sg11
I00
sg12
I00
sssg13
(lp507
I6
asg15
(lp508
(dp509
Vlat
p510
F34.04197
sVlng
p511
F-118.235422
sassS'Valerie Confections'
p512
g2
(g3
tp513
Rp514
g6
(dp515
S"Blum's Coffee Crunch Cake"
p516
(dp517
g10
I00
sg11
I00
sg12
I00
sssg13
(lp518
I68
asg15
(lp519
(dp520
Vlat
p521
F34.0733807
sVlng
p522
F-118.2860371
sassS'Chaya'
p523
g2
(g3
tp524
Rp525
g6
(dp526
S'Tuna Tartare'
p527
(dp528
g10
I00
sg11
I00
sg12
I00
sssg13
(lp529
I66
asg15
(lp530
(dp531
Vlat
p532
F34.0512948
sVlng
p533
F-118.2575046
sassS'El Cholo'
p534
g2
(g3
tp535
Rp536
g6
(dp537
S'Nachos'
p538
(dp539
g10
I00
sg11
I00
sg12
I00
ssS'Green corn tamales'
p540
(dp541
g10
I00
sg11
I00
sg12
I01
sssg13
(lp542
I63
aI88
asg15
(lp543
(dp544
Vlat
p545
F34.0243913
sVlng
p546
F-118.4920785
sa(dp547
Vlat
p548
F34.050257
sVlng
p549
F-118.3092343
sa(dp550
Vlat
p551
F34.0435993
sVlng
p552
F-118.2638228
sa(dp553
Vlat
p554
F33.94561960000001
sVlng
p555
F-118.4038455
sassS"Pan's"
p556
g2
(g3
tp557
Rp558
g6
(dp559
S'Fried Chicken'
p560
(dp561
g10
I00
sg11
I00
sg12
I00
sssg13
(lp562
I70
asg15
(lp563
(dp564
Vlat
p565
F34.0406956
sVlng
p566
F-118.4278467
sa(dp567
Vlat
p568
F33.9766621
sVlng
p569
F-118.3719284
sa(dp570
Vlat
p571
F33.99208
sVlng
p572
F-118.422736
sa(dp573
Vlat
p574
F34.0755684
sVlng
p575
F-118.3544883
sassS"Musso & Frank's"
p576
g2
(g3
tp577
Rp578
g6
(dp579
S'Flannel Cakes'
p580
(dp581
g10
I00
sg11
I00
sg12
I00
sssg13
(lp582
I51
asg15
(lp583
(dp584
Vlat
p585
F34.1018304
sVlng
p586
F-118.3354084
sassS'Katsu-Ya'
p587
g2
(g3
tp588
Rp589
g6
(dp590
S'Spicy Tuna Crispy Rice'
p591
(dp592
g10
I00
sg11
I00
sg12
I00
sssg13
(lp593
I58
asg15
(lp594
(dp595
Vlat
p596
F34.053484
sVlng
p597
F-118.468365
sa(dp598
Vlat
p599
F34.1014509
sVlng
p600
F-118.3270568
sa(dp601
Vlat
p602
F34.04456119999999
sVlng
p603
F-118.2656156
sassS'Zankou Chicken'
p604
g2
(g3
tp605
Rp606
g6
(dp607
S'Tarna Warp'
p608
(dp609
g10
I00
sg11
I00
sg12
I01
sssg13
(lp610
I44
asg15
(lp611
(dp612
Vlat
p613
F34.0471585
sVlng
p614
F-118.4437234
sa(dp615
Vlat
p616
F34.0982898
sVlng
p617
F-118.3606741
sa(dp618
Vlat
p619
F34.0985315
sVlng
p620
F-118.3002893
sassS"Ricky's Fish Tacos"
p621
g2
(g3
tp622
Rp623
g6
(dp624
S'Fish Tacos'
p625
(dp626
g10
I00
sg11
I00
sg12
I00
sssg13
(lp627
I57
asg15
(lp628
(dp629
Vlat
p630
F34.09688149999999
sVlng
p631
F-118.2872444
sassS'Daikokuya Ramen'
p632
g2
(g3
tp633
Rp634
g6
(dp635
S'Spicy Miso Ramen'
p636
(dp637
g10
I00
sg11
I00
sg12
I00
sssg13
(lp638
I99
asg15
(lp639
(dp640
Vlat
p641
F34.0379806
sVlng
p642
F-118.4407598
sa(dp643
Vlat
p644
F34.0500021
sVlng
p645
F-118.2400679
sassS'The Apple Pan'
p646
g2
(g3
tp647
Rp648
g6
(dp649
S'Banana Cr\x8fme Pie'
p650
(dp651
g10
I00
sg11
I00
sg12
I01
ssS'Hickory Burger'
p652
(dp653
g10
I00
sg11
I00
sg12
I00
sssg13
(lp654
I31
aI90
asg15
(lp655
(dp656
Vlat
p657
F34.0406956
sVlng
p658
F-118.4278467
sassS'Dodger Stadium'
p659
g2
(g3
tp660
Rp661
g6
(dp662
S'Dodger Dog'
p663
(dp664
g10
I00
sg11
I00
sg12
I00
sssg13
(lp665
I7
asg15
(lp666
(dp667
Vlat
p668
F34.073851
sVlng
p669
F-118.2399583
sassS'La Scala'
p670
g2
(g3
tp671
Rp672
g6
(dp673
S'Original Chopped Salad'
p674
(dp675
g10
I00
sg11
I00
sg12
I00
sssg13
(lp676
I47
asg15
(lp677
(dp678
Vlat
p679
F34.0529574
sVlng
p680
F-118.4668351
sassS'Baroo'
p681
g2
(g3
tp682
Rp683
g6
(dp684
S'Noorook'
p685
(dp686
g10
I00
sg11
I00
sg12
I00
sssg13
(lp687
I76
asg15
(lp688
(dp689
Vlat
p690
F34.0904444
sVlng
p691
F-118.3138278
sassS'Eagle Rock Italian Bakery'
p692
g2
(g3
tp693
Rp694
g6
(dp695
S'Rum Cake'
p696
(dp697
g10
I00
sg11
I00
sg12
I00
sssg13
(lp698
I65
asg15
(lp699
(dp700
Vlat
p701
F34.1392187
sVlng
p702
F-118.2046433
sassS"Bob's Big Boy"
p703
g2
(g3
tp704
Rp705
g6
(dp706
S'Big Boy Combo'
p707
(dp708
g10
I00
sg11
I00
sg12
I00
sssg13
(lp709
I72
asg15
(lp710
(dp711
Vlat
p712
F34.2315838
sVlng
p713
F-118.5618725
sa(dp714
Vlat
p715
F34.1523958
sVlng
p716
F-118.3461425
sassS'Din Tai Fung'
p717
g2
(g3
tp718
Rp719
g6
(dp720
S'Soup Dumplings'
p721
(dp722
g10
I00
sg11
I00
sg12
I01
sssg13
(lp723
I43
asg15
(lp724
(dp725
Vlat
p726
F34.1429849
sVlng
p727
F-118.2553442
sa(dp728
Vlat
p729
F34.1350798
sVlng
p730
F-118.0517164
sa(dp731
Vlat
p732
F33.6920939
sVlng
p733
F-117.8877851
sassS'Providence'
p734
g2
(g3
tp735
Rp736
g6
(dp737
S'The Ugly Bunch'
p738
(dp739
g10
I00
sg11
I00
sg12
I00
sssg13
(lp740
I59
asg15
(lp741
(dp742
Vlat
p743
F34.0836413
sVlng
p744
F-118.3302036
sassS'Magal Korean BBQ'
p745
g2
(g3
tp746
Rp747
g6
(dp748
S'Beef Combo'
p749
(dp750
g10
I00
sg11
I00
sg12
I00
sssg13
(lp751
I95
asg15
(lp752
(dp753
Vlat
p754
F34.0575419
sVlng
p755
F-118.3055724
sassS'Pacific Dining Car'
p756
g2
(g3
tp757
Rp758
g6
(dp759
S'Baseball Steak (w/lobster tail)'
p760
(dp761
g10
I01
sg11
I00
sg12
I00
sssg13
(lp762
I96
asg15
(lp763
(dp764
Vlat
p765
F34.0367387
sVlng
p766
F-118.4763373
sa(dp767
Vlat
p768
F34.0554918
sVlng
p769
F-118.2660331
sassS'Animal'
p770
g2
(g3
tp771
Rp772
g6
(dp773
S'Bacon Chocolte Crunch Bar'
p774
(dp775
g10
I00
sg11
I00
sg12
I00
sssg13
(lp776
I75
asg15
(lp777
(dp778
Vlat
p779
F34.0792295
sVlng
p780
F-118.3617722
sassS"Miceli's"
p781
g2
(g3
tp782
Rp783
g6
(dp784
S"Aunt Angie's Lasagna"
p785
(dp786
g10
I00
sg11
I00
sg12
I00
sssg13
(lp787
I73
asg15
(lp788
(dp789
Vlat
p790
F34.10134
sVlng
p791
F-118.336097
sa(dp792
Vlat
p793
F34.13463100000001
sVlng
p794
F-118.361089
sassS'Osteria Mozza'
p795
g2
(g3
tp796
Rp797
g6
(dp798
S'Burrata'
p799
(dp800
g10
I00
sg11
I00
sg12
I00
sssg13
(lp801
I92
asg15
(lp802
(dp803
Vlat
p804
F34.0832515
sVlng
p805
F-118.338874
sassS'Stella Barra'
p806
g2
(g3
tp807
Rp808
g6
(dp809
S'Rice Krispy Treat Cookies'
p810
(dp811
g10
I00
sg11
I00
sg12
I00
sssg13
(lp812
I26
asg15
(lp813
(dp814
Vlat
p815
F34.0977183
sVlng
p816
F-118.3286804
sassS'Chart House'
p817
g2
(g3
tp818
Rp819
g6
(dp820
S'Chocolate Lava Cake'
p821
(dp822
g10
I00
sg11
I00
sg12
I00
sssg13
(lp823
I29
asg15
(lp824
(dp825
Vlat
p826
F33.9786922
sVlng
p827
F-118.4533319
sassS'The Polo Lounge'
p828
g2
(g3
tp829
Rp830
g6
(dp831
S'McCarthy Salad'
p832
(dp833
g10
I00
sg11
I00
sg12
I00
sssg13
(lp834
I84
asg15
(lp835
(dp836
Vlat
p837
F34.081528
sVlng
p838
F-118.413855
sassS'Guerilla Tacos'
p839
g2
(g3
tp840
Rp841
g6
(dp842
S'Sweet Potato Tacos'
p843
(dp844
g10
I00
sg11
I00
sg12
I01
sssg13
(lp845
I13
asg15
(lp846
(dp847
Vlat
p848
F34.045701
sVlng
p849
F-118.235316
sa(dp850
Vlat
p851
F34.0310922
sVlng
p852
F-118.3778603
sassS"Canter's Deli"
p853
g2
(g3
tp854
Rp855
g6
(dp856
S'Matzo Ball Soup'
p857
(dp858
g10
I00
sg11
I00
sg12
I00
ssS'Pastrami Sandwich'
p859
(dp860
g10
I00
sg11
I00
sg12
I00
sssg13
(lp861
I27
aI32
asg15
(lp862
(dp863
Vlat
p864
F34.0789
sVlng
p865
F-118.361722
sassS'Melisse'
p866
g2
(g3
tp867
Rp868
g6
(dp869
S'Lobster Bolognese'
p870
(dp871
g10
I01
sg11
I00
sg12
I00
sssg13
(lp872
I80
asg15
(lp873
(dp874
Vlat
p875
F34.0242934
sVlng
p876
F-118.4912758
sassS'Musso and Frank Grill'
p877
g2
(g3
tp878
Rp879
g6
(dp880
S'Martini'
p881
(dp882
g10
I00
sg11
I00
sg12
I00
sssg13
(lp883
I87
asg15
(lp884
(dp885
Vlat
p886
F34.1018304
sVlng
p887
F-118.3354084
sassS'Chego'
p888
g2
(g3
tp889
Rp890
g6
(dp891
S'Chubby Pork Belly Bowl '
p892
(dp893
g10
I00
sg11
I00
sg12
I00
sssg13
(lp894
I37
asg15
(lp895
(dp896
Vlat
p897
F34.0613819
sVlng
p898
F-118.2396111
sassS'South Bevery Grill'
p899
g2
(g3
tp900
Rp901
g6
(dp902
S'Dover Sole'
p903
(dp904
g10
I00
sg11
I00
sg12
I00
sssg13
(lp905
I83
asg15
(lp906
(dp907
Vlat
p908
F34.066125
sVlng
p909
F-118.3989013
sassS'Pie and Burger'
p910
g2
(g3
tp911
Rp912
g6
(dp913
S'Cheeseburger '
p914
(dp915
g10
I00
sg11
I00
sg12
I00
sssg13
(lp916
I100
asg15
(lp917
(dp918
Vlat
p919
F34.1360062
sVlng
p920
F-118.1314835
sa(dp921
Vlat
p922
F34.0406956
sVlng
p923
F-118.4278467
sassS'sugarfish'
p924
g2
(g3
tp925
Rp926
g6
(dp927
S'Trust Me'
p928
(dp929
g10
I01
sg11
I00
sg12
I00
sssg13
(lp930
I49
asg15
(lp931
(dp932
Vlat
p933
F34.05351789999999
sVlng
p934
F-118.463145
sa(dp935
Vlat
p936
F34.0734652
sVlng
p937
F-118.3442974
sa(dp938
Vlat
p939
F34.047409
sVlng
p940
F-118.257171
sa(dp941
Vlat
p942
F34.09829810000001
sVlng
p943
F-118.3226969
sassS'Crossroads Kitchen'
p944
g2
(g3
tp945
Rp946
g6
(dp947
S'Artichoke Oysters'
p948
(dp949
g10
I01
sg11
I00
sg12
I00
sssg13
(lp950
I67
asg15
(lp951
(dp952
Vlat
p953
F34.083527
sVlng
p954
F-118.370157
sassS'Falafel Arax'
p955
g2
(g3
tp956
Rp957
g6
(dp958
S'Chicken Shawarma Baguette Sandwich'
p959
(dp960
g10
I00
sg11
I00
sg12
I00
sssg13
(lp961
I48
asg15
(lp962
(dp963
Vlat
p964
F34.09105400000001
sVlng
p965
F-118.300799
sassS'Umami Burger'
p966
g2
(g3
tp967
Rp968
g6
(dp969
S'The Umami Burger'
p970
(dp971
g10
I00
sg11
I00
sg12
I00
sssg13
(lp972
I54
asg15
(lp973
(dp974
Vlat
p975
F34.073067
sVlng
p976
F-118.358497
sa(dp977
Vlat
p978
F34.09892810000001
sVlng
p979
F-118.3292468
sa(dp980
Vlat
p981
F33.942257
sVlng
p982
F-118.407042
sa(dp983
Vlat
p984
F34.0424672
sVlng
p985
F-118.2556542
sa(dp986
Vlat
p987
F34.10069599999999
sVlng
p988
F-118.290505
sa(dp989
Vlat
p990
F34.0455554
sVlng
p991
F-118.2367412
sassS'Pizzaria Mozza'
p992
g2
(g3
tp993
Rp994
g6
(dp995
S'Butterscotch Budino'
p996
(dp997
g10
I00
sg11
I00
sg12
I00
ssS'Fennel Sausage Pizza'
p998
(dp999
g10
I00
sg11
I00
sg12
I00
sssg13
(lp1000
I38
aI60
asg15
(lp1001
(dp1002
Vlat
p1003
F34.0831213
sVlng
p1004
F-118.3388633
sassS"Roscoe's Chicken and Waffles"
p1005
g2
(g3
tp1006
Rp1007
g6
(dp1008
S'The #9'
p1009
(dp1010
g10
I00
sg11
I00
sg12
I00
sssg13
(lp1011
I30
asg15
(lp1012
(dp1013
Vlat
p1014
F34.04752879999999
sVlng
p1015
F-118.3462124
sa(dp1016
Vlat
p1017
F34.0985783
sVlng
p1018
F-118.3221555
sa(dp1019
Vlat
p1020
F33.9598486
sVlng
p1021
F-118.2745223
sa(dp1022
Vlat
p1023
F33.9618174
sVlng
p1024
F-118.3674194
sassS"Dan Tana's"
p1025
g2
(g3
tp1026
Rp1027
g6
(dp1028
S'Chicken Parm'
p1029
(dp1030
g10
I00
sg11
I00
sg12
I00
sssg13
(lp1031
I62
asg15
(lp1032
(dp1033
Vlat
p1034
F34.0817517
sVlng
p1035
F-118.3890223
sassS'La Estrella'
p1036
g2
(g3
tp1037
Rp1038
g6
(dp1039
S'Carne Tacos'
p1040
(dp1041
g10
I00
sg11
I00
sg12
I00
sssg13
(lp1042
I36
asg15
(lp1043
(dp1044
Vlat
p1045
F34.1119185
sVlng
p1046
F-118.1884226
sa(dp1047
Vlat
p1048
F34.026441
sVlng
p1049
F-118.2016872
sa(dp1050
Vlat
p1051
F34.0903333
sVlng
p1052
F-118.3832903
sassS"Porto's"
p1053
g2
(g3
tp1054
Rp1055
g6
(dp1056
S'Guave Cheese Pastry'
p1057
(dp1058
g10
I00
sg11
I00
sg12
I00
sssg13
(lp1059
I46
asg15
(lp1060
(dp1061
Vlat
p1062
F34.1676971
sVlng
p1063
F-118.3465324
sa(dp1064
Vlat
p1065
F34.1504211
sVlng
p1066
F-118.2554535
sassS'In-N-Out'
p1067
g2
(g3
tp1068
Rp1069
g6
(dp1070
S'Animal Style Fries '
p1071
(dp1072
g10
I00
sg11
I00
sg12
I01
sssg13
(lp1073
I11
asg15
(lp1074
(dp1075
Vlat
p1076
F34.06306399999999
sVlng
p1077
F-118.448026
sa(dp1078
Vlat
p1079
F34.0264684
sVlng
p1080
F-118.3942793
sa(dp1081
Vlat
p1082
F33.95370630000001
sVlng
p1083
F-118.396763
sa(dp1084
Vlat
p1085
F34.1350731
sVlng
p1086
F-118.3606042
sa(dp1087
Vlat
p1088
F33.945794
sVlng
p1089
F-118.33238
sassS'Wurstkuche'
p1090
g2
(g3
tp1091
Rp1092
g6
(dp1093
S'The Rattlesnake and Rabbit Bratwurst'
p1094
(dp1095
g10
I00
sg11
I00
sg12
I01
sssg13
(lp1096
I18
asg15
(lp1097
(dp1098
Vlat
p1099
F34.045601
sVlng
p1100
F-118.236064
sassS'Sycamore Kitchen'
p1101
g2
(g3
tp1102
Rp1103
g6
(dp1104
S'Mediterranean Gem Salad'
p1105
(dp1106
g10
I00
sg11
I00
sg12
I00
sssg13
(lp1107
I2
asg15
(lp1108
(dp1109
Vlat
p1110
F34.0723653
sVlng
p1111
F-118.344421
sassS'Bottega Louie'
p1112
g2
(g3
tp1113
Rp1114
g6
(dp1115
S'Macaron'
p1116
(dp1117
g10
I00
sg11
I00
sg12
I00
sssg13
(lp1118
I9
asg15
(lp1119
(dp1120
Vlat
p1121
F34.04695359999999
sVlng
p1122
F-118.2564831
sassS'Sqirl'
p1123
g2
(g3
tp1124
Rp1125
g6
(dp1126
S'Crispy Rice Salad'
p1127
(dp1128
g10
I00
sg11
I00
sg12
I00
sssg13
(lp1129
I52
asg15
(lp1130
(dp1131
Vlat
p1132
F34.0842999
sVlng
p1133
F-118.286684
sassS"Greenblatt's Deli"
p1134
g2
(g3
tp1135
Rp1136
g6
(dp1137
S'Chicken Noodle Soup'
p1138
(dp1139
g10
I00
sg11
I00
sg12
I00
sssg13
(lp1140
I4
asg15
(lp1141
(dp1142
Vlat
p1143
F34.0981571
sVlng
p1144
F-118.3646505
sassS'Yogurt Stop'
p1145
g2
(g3
tp1146
Rp1147
g6
(dp1148
S'Red Velvet Froyo'
p1149
(dp1150
g10
I00
sg11
I00
sg12
I00
sssg13
(lp1151
I21
asg15
(lp1152
(dp1153
Vlat
p1154
F34.08586100000001
sVlng
p1155
F-118.383084
sassS'Casa Bianca Pizza Pie'
p1156
g2
(g3
tp1157
Rp1158
g6
(dp1159
S'Pepperoni Pizza'
p1160
(dp1161
g10
I00
sg11
I00
sg12
I00
ssS'Fried Eggplant Pizza'
p1162
(dp1163
g10
I00
sg11
I00
sg12
I00
sssg13
(lp1164
I64
aI94
asg15
(lp1165
(dp1166
Vlat
p1167
F34.13919800000001
sVlng
p1168
F-118.2028302
sassS'Cofax'
p1169
g2
(g3
tp1170
Rp1171
g6
(dp1172
S'Pastrami Breakfast Burrito'
p1173
(dp1174
g10
I00
sg11
I00
sg12
I00
sssg13
(lp1175
I56
asg15
(lp1176
(dp1177
Vlat
p1178
F34.07933599999999
sVlng
p1179
F-118.361266
sassS"Phillipe's"
p1180
g2
(g3
tp1181
Rp1182
g6
(dp1183
S'French Dip'
p1184
(dp1185
g10
I00
sg11
I00
sg12
I00
sssg13
(lp1186
I1
asg15
(lp1187
(dp1188
Vlat
p1189
F34.059768
sVlng
p1190
F-118.237035
sassS'The Bigg Chill'
p1191
g2
(g3
tp1192
Rp1193
g6
(dp1194
S'Vegan Cookie Dough'
p1195
(dp1196
g10
I00
sg11
I00
sg12
I01
sssg13
(lp1197
I45
asg15
(lp1198
(dp1199
Vlat
p1200
F34.04371440000001
sVlng
p1201
F-118.4313531
sass.